Certificate:
    Data:
        Version: 3 (0x2)
        Serial Number: 4096 (0x1000)
        Signature Algorithm: sha256WithRSAEncryption
        Issuer: CN=Root CA
        Validity
            Not Before: Jul 12 09:32:29 2023 GMT
            Not After : Jul 11 09:32:29 2024 GMT
        Subject: CN=OCSP
        Subject Public Key Info:
            Public Key Algorithm: rsaEncryption
                Public-Key: (2048 bit)
                Modulus:
                    00:d9:d8:e2:e2:f1:ca:6f:a2:29:d0:6e:ce:18:12:
                    69:3d:19:d4:0d:72:0f:7e:cc:14:47:cb:f6:11:24:
                    5f:9b:6d:da:de:20:dc:1e:2d:88:a0:1e:0d:83:de:
                    b7:09:9e:b8:d7:90:d0:26:77:4f:1a:0f:4c:7e:e2:
                    2a:b9:f1:3b:f2:e4:fe:3c:55:9f:9c:d5:1d:d7:52:
                    cd:58:41:1d:b4:b0:a8:27:33:cc:3e:b8:5d:92:5f:
                    15:f5:f0:87:72:df:5a:4d:12:b6:21:dc:9f:23:56:
                    90:62:9a:83:0f:f5:d0:b6:da:23:41:e2:44:ca:7f:
                    53:91:33:a1:da:2a:71:cc:f3:08:37:27:35:ef:f6:
                    55:68:21:08:00:83:20:26:24:ea:10:5e:14:3c:2a:
                    7d:40:3a:3d:e3:be:9d:49:82:6d:a1:23:87:b6:31:
                    38:e0:8e:b6:93:f6:c2:b1:3d:72:19:90:a9:d3:c2:
                    76:57:f3:c3:29:13:d1:ef:b1:0e:d7:57:60:9d:62:
                    63:2b:cb:e2:fa:f5:7e:bc:6e:5d:d2:d5:e8:ac:0e:
                    37:88:bc:73:ed:cf:a4:de:9d:9b:3b:c3:16:ee:a7:
                    2e:ce:b5:d3:8a:47:16:bf:98:38:7d:0b:be:97:1e:
                    23:4f:a2:e9:14:17:53:55:67:dd:d2:eb:8e:ee:77:
                    b7:a7
                Exponent: 65537 (0x10001)
        X509v3 extensions:
            X509v3 Basic Constraints: 
                CA:FALSE
            X509v3 Subject Key Identifier: 
                2B:C9:AC:45:83:BB:96:5B:73:77:1A:F8:DB:F9:98:44:C6:E8:55:95
            X509v3 Authority Key Identifier: 
                63:2F:CE:D5:F6:6A:93:75:66:0C:08:D3:41:6F:A1:DA:CB:B3:B0:3E
    Signature Algorithm: sha256WithRSAEncryption
    Signature Value:
        02:87:49:a3:6f:c4:59:38:94:f9:f7:1a:ff:6f:4c:b4:6b:bd:
        d2:79:98:5c:90:a8:49:45:ec:91:4e:ac:45:ec:8d:81:7f:ce:
        ea:2f:93:c1:40:49:d4:c7:f2:ae:c0:60:1d:7d:65:91:83:63:
        51:4c:f0:ce:ef:81:dc:43:a6:b3:01:39:66:52:2d:1d:08:16:
        a7:a7:54:78:e6:7a:06:49:5f:86:37:12:48:42:ab:37:a9:c0:
        04:98:70:45:50:9e:6d:30:6d:6d:81:05:79:1b:5c:2b:75:b9:
        a8:46:22:4a:80:c9:ab:7c:f7:b2:63:69:ed:08:31:32:bd:8e:
        f8:d7:8e:8e:29:8e:f6:b0:52:c2:a3:19:c1:e0:88:de:de:94:
        4f:f1:a5:9b:1c:1c:c0:11:79:7f:df:38:1b:97:a9:6c:26:fc:
        7e:31:f5:78:ba:c1:1d:e6:7c:e1:8e:b3:c5:91:fc:f6:5f:44:
        18:44:0b:15:c8:94:a5:a7:02:58:2f:be:f4:e4:80:0a:ce:8e:
        33:36:dd:0f:39:d3:b6:ae:57:d2:46:b4:a2:d1:49:c9:29:a7:
        a0:a7:62:a7:2e:2d:7d:91:94:12:f7:55:13:54:d5:4e:4d:eb:
        1f:78:a7:9e:a9:93:f9:6c:a9:ec:97:2e:c6:04:67:fa:95:47:
        1e:2c:d2:74
-----BEGIN CERTIFICATE-----
MIIC6jCCAdKgAwIBAgICEAAwDQYJKoZIhvcNAQELBQAwEjEQMA4GA1UEAwwHUm9v
dCBDQTAeFw0yMzA3MTIwOTMyMjlaFw0yNDA3MTEwOTMyMjlaMA8xDTALBgNVBAMM
BE9DU1AwggEiMA0GCSqGSIb3DQEBAQUAA4IBDwAwggEKAoIBAQDZ2OLi8cpvoinQ
bs4YEmk9GdQNcg9+zBRHy/YRJF+bbdreINweLYigHg2D3rcJnrjXkNAmd08aD0x+
4iq58Tvy5P48VZ+c1R3XUs1YQR20sKgnM8w+uF2SXxX18Idy31pNErYh3J8jVpBi
moMP9dC22iNB4kTKf1ORM6HaKnHM8wg3JzXv9lVoIQgAgyAmJOoQXhQ8Kn1AOj3j
vp1Jgm2hI4e2MTjgjraT9sKxPXIZkKnTwnZX88MpE9HvsQ7XV2CdYmMry+L69X68
bl3S1eisDjeIvHPtz6TenZs7wxbupy7OtdOKRxa/mDh9C76XHiNPoukUF1NVZ93S
647ud7enAgMBAAGjTTBLMAkGA1UdEwQCMAAwHQYDVR0OBBYEFCvJrEWDu5Zbc3ca
+Nv5mETG6FWVMB8GA1UdIwQYMBaAFGMvztX2apN1ZgwI00FvodrLs7A+MA0GCSqG
SIb3DQEBCwUAA4IBAQACh0mjb8RZOJT59xr/b0y0a73SeZhckKhJReyRTqxF7I2B
f87qL5PBQEnUx/KuwGAdfWWRg2NRTPDO74HcQ6azATlmUi0dCBanp1R45noGSV+G
NxJIQqs3qcAEmHBFUJ5tMG1tgQV5G1wrdbmoRiJKgMmrfPeyY2ntCDEyvY74146O
KY72sFLCoxnB4Ije3pRP8aWbHBzAEXl/3zgbl6lsJvx+MfV4usEd5nzhjrPFkfz2
X0QYRAsVyJSlpwJYL7705IAKzo4zNt0POdO2rlfSRrSi0UnJKaegp2KnLi19kZQS
91UTVNVOTesfeKeeqZP5bKnsly7GBGf6lUceLNJ0
-----END CERTIFICATE-----
