Certificate:
    Data:
        Version: 3 (0x2)
        Serial Number: 4097 (0x1001)
        Signature Algorithm: sha256WithRSAEncryption
        Issuer: CN=Root CA
        Validity
            Not Before: Jul 12 09:33:13 2023 GMT
            Not After : Jul 11 09:33:13 2024 GMT
        Subject: CN=Server
        Subject Public Key Info:
            Public Key Algorithm: rsaEncryption
                Public-Key: (2048 bit)
                Modulus:
                    00:db:e2:a3:08:74:02:d8:49:97:7b:fd:10:49:e4:
                    f4:d1:65:2d:b7:77:84:a4:23:16:6e:38:65:e2:49:
                    d6:0d:c8:33:6a:83:e8:d9:67:91:cf:26:ed:59:71:
                    91:59:ec:06:08:34:20:27:93:fc:af:d6:b3:dd:02:
                    8c:f9:d2:c6:4a:4e:31:da:71:06:4b:85:a4:9d:b3:
                    43:e5:37:9f:d3:ae:4c:14:d1:65:1b:6a:51:56:9b:
                    90:fa:2c:1f:95:94:37:64:39:25:92:3b:75:0d:a3:
                    6d:e7:5f:7c:01:30:25:8b:f6:d4:ea:34:2c:33:37:
                    1f:28:dc:fe:8b:f2:08:c4:3b:23:94:de:52:01:dc:
                    35:34:16:01:99:37:41:64:93:b6:6b:6d:9c:68:96:
                    7e:fc:1d:c8:1f:c0:1c:56:0b:64:9a:7c:ec:14:f7:
                    3a:1f:8d:d7:04:42:be:10:ea:40:0a:0c:ad:4c:ec:
                    46:1b:ab:c5:3a:ec:15:12:ed:24:51:a2:3d:94:6f:
                    a2:8d:85:31:82:b8:7e:5f:d0:ce:2e:9b:29:2f:a2:
                    78:38:6e:fa:98:aa:6a:e9:00:cd:2a:57:f1:74:9e:
                    0b:ac:f2:a2:60:00:7d:b5:01:e1:c0:bc:6f:62:b8:
                    ff:c0:a6:16:ec:94:a1:65:f8:c7:b9:dc:9d:ff:d8:
                    0f:e5
                Exponent: 65537 (0x10001)
        X509v3 extensions:
            X509v3 Basic Constraints: 
                CA:FALSE
            X509v3 Subject Key Identifier: 
                3E:48:4E:C9:24:FA:DE:27:EA:A4:98:81:2A:06:12:9A:F6:FA:17:4E
            X509v3 Authority Key Identifier: 
                63:2F:CE:D5:F6:6A:93:75:66:0C:08:D3:41:6F:A1:DA:CB:B3:B0:3E
    Signature Algorithm: sha256WithRSAEncryption
    Signature Value:
        22:fe:de:97:6e:e8:5d:65:91:f0:70:af:97:85:53:5e:8e:c8:
        88:9b:e5:b3:33:d4:21:b9:3b:09:b7:72:70:16:8c:a8:0e:80:
        0f:1b:03:cb:95:94:ae:40:e2:3b:54:06:ec:1e:f5:bc:58:8a:
        22:57:cf:fe:14:b0:15:8c:18:5d:9d:fe:0e:70:55:26:c5:cc:
        92:f3:bf:03:19:e6:bd:41:b5:c3:cf:15:d3:e9:10:df:65:2a:
        68:c0:a3:df:93:a4:b1:66:20:94:1d:df:0a:9c:05:e7:74:a1:
        1a:39:db:c2:5b:78:8c:0c:f6:5e:30:80:cc:39:04:8a:8c:db:
        81:c1:5b:b4:3e:c2:ba:ae:06:ec:19:91:b4:a5:46:05:e7:8c:
        ef:88:3f:d1:38:d3:37:42:88:25:c2:43:9b:df:7f:7c:15:c3:
        7b:72:d2:b6:49:45:ce:c8:ce:f1:2d:be:7b:86:1c:31:8d:c9:
        de:51:d4:06:9f:1d:f2:86:ac:bf:5f:4d:da:31:26:70:ce:e1:
        0a:87:1f:a9:73:24:78:a2:4a:c2:73:ea:4c:6b:2c:a7:b6:1c:
        d7:c3:5e:3a:8a:f9:02:54:62:73:a2:a6:3e:e5:d6:2d:6f:6e:
        ba:57:11:20:d1:41:2e:c7:6b:d8:7d:70:5e:1d:17:03:5e:a7:
        16:c9:4b:fb
-----BEGIN CERTIFICATE-----
MIIC7DCCAdSgAwIBAgICEAEwDQYJKoZIhvcNAQELBQAwEjEQMA4GA1UEAwwHUm9v
dCBDQTAeFw0yMzA3MTIwOTMzMTNaFw0yNDA3MTEwOTMzMTNaMBExDzANBgNVBAMM
BlNlcnZlcjCCASIwDQYJKoZIhvcNAQEBBQADggEPADCCAQoCggEBANviowh0AthJ
l3v9EEnk9NFlLbd3hKQjFm44ZeJJ1g3IM2qD6Nlnkc8m7VlxkVnsBgg0ICeT/K/W
s90CjPnSxkpOMdpxBkuFpJ2zQ+U3n9OuTBTRZRtqUVabkPosH5WUN2Q5JZI7dQ2j
bedffAEwJYv21Oo0LDM3Hyjc/ovyCMQ7I5TeUgHcNTQWAZk3QWSTtmttnGiWfvwd
yB/AHFYLZJp87BT3Oh+N1wRCvhDqQAoMrUzsRhurxTrsFRLtJFGiPZRvoo2FMYK4
fl/Qzi6bKS+ieDhu+piqaukAzSpX8XSeC6zyomAAfbUB4cC8b2K4/8CmFuyUoWX4
x7ncnf/YD+UCAwEAAaNNMEswCQYDVR0TBAIwADAdBgNVHQ4EFgQUPkhOyST63ifq
pJiBKgYSmvb6F04wHwYDVR0jBBgwFoAUYy/O1fZqk3VmDAjTQW+h2suzsD4wDQYJ
KoZIhvcNAQELBQADggEBACL+3pdu6F1lkfBwr5eFU16OyIib5bMz1CG5Owm3cnAW
jKgOgA8bA8uVlK5A4jtUBuwe9bxYiiJXz/4UsBWMGF2d/g5wVSbFzJLzvwMZ5r1B
tcPPFdPpEN9lKmjAo9+TpLFmIJQd3wqcBed0oRo528JbeIwM9l4wgMw5BIqM24HB
W7Q+wrquBuwZkbSlRgXnjO+IP9E40zdCiCXCQ5vff3wVw3ty0rZJRc7IzvEtvnuG
HDGNyd5R1AafHfKGrL9fTdoxJnDO4QqHH6lzJHiiSsJz6kxrLKe2HNfDXjqK+QJU
YnOipj7l1i1vbrpXESDRQS7Ha9h9cF4dFwNepxbJS/s=
-----END CERTIFICATE-----
