Certificate:
    Data:
        Version: 3 (0x2)
        Serial Number: 1 (0x1)
        Signature Algorithm: md5WithRSAEncryption
        Issuer: C=NZ, L=Wellington, O=Really Irresponsible Authorisation Authority (RIAA), OU=Cert-stamping, CN=Jackov al-Trades/Email=none@fake.domain
        Validity
            Not Before: Nov  1 21:09:30 2000 GMT
            Not After : Nov  1 21:09:30 2001 GMT
        Subject: C=NZ, L=Auckland, O=Silly City-Boys Corp., OU=Internal counselling, CN=tunala-client/Email=client@fake.domain
        Subject Public Key Info:
            Public Key Algorithm: rsaEncryption
            RSA Public Key: (1024 bit)
                Modulus (1024 bit):
                    00:a5:b2:8e:de:05:d1:fe:29:f7:46:a6:6b:a0:e5:
                    41:2c:f7:55:a8:53:5a:e8:37:1a:68:29:5d:fd:7e:
                    a4:40:b5:ce:e0:44:54:9e:c6:f8:9a:40:bb:45:41:
                    57:cc:dc:97:d9:66:3e:68:9d:29:93:15:f9:2b:75:
                    aa:49:7f:e6:cf:7f:95:44:8e:41:ed:05:97:1e:cb:
                    3f:03:33:b0:21:2b:89:67:08:cc:7b:b2:ef:fa:26:
                    c7:ea:21:f2:77:5f:bd:e2:67:36:0a:e2:3d:ee:76:
                    4f:d2:d3:e9:bb:22:c0:bb:0c:e4:a2:8c:aa:71:3b:
                    75:6c:46:a7:d2:1b:57:ee:f3
                Exponent: 65537 (0x10001)
        X509v3 extensions:
            X509v3 Basic Constraints: 
                CA:FALSE
            Netscape Comment: 
                OpenSSL Generated Certificate
            X509v3 Subject Key Identifier: 
                74:A8:8B:1F:5B:59:55:09:CB:98:5C:2F:41:87:CA:AC:D4:B5:04:FF
            X509v3 Authority Key Identifier: 
                keyid:57:5A:5D:E0:71:0B:0C:E0:0F:51:87:DE:08:C8:25:E7:F7:87:46:C0
                DirName:/C=NZ/L=Wellington/O=Really Irresponsible Authorisation Authority (RIAA)/OU=Cert-stamping/CN=Jackov al-Trades/Email=none@fake.domain
                serial:00

    Signature Algorithm: md5WithRSAEncryption
        5f:36:74:77:1d:c7:56:71:d3:32:30:12:8f:4d:8e:25:90:1c:
        b3:2e:e0:c1:77:75:ea:2c:aa:ef:82:c8:e0:86:8c:df:dc:e1:
        86:68:81:91:1e:4e:56:b1:5d:93:6f:80:10:80:c3:d8:c4:3b:
        0f:20:dd:43:b5:f8:09:a4:bb:a9:04:11:e0:d4:f9:d9:83:19:
        2a:da:7c:bb:4c:c2:4f:57:43:0d:1a:1e:31:61:fb:24:62:92:
        74:12:9c:51:ef:12:3e:23:e4:45:66:2b:ac:00:60:bf:a0:ff:
        43:da:95:c3:cf:64:40:d2:97:8d:c1:dd:26:ce:5f:b9:a1:ea:
        92:32
-----BEGIN CERTIFICATE-----
MIIECDCCA3GgAwIBAgIBATANBgkqhkiG9w0BAQQFADCBtDELMAkGA1UEBhMCTlox
EzARBgNVBAcTCldlbGxpbmd0b24xPDA6BgNVBAoTM1JlYWxseSBJcnJlc3BvbnNp
YmxlIEF1dGhvcmlzYXRpb24gQXV0aG9yaXR5IChSSUFBKTEWMBQGA1UECxMNQ2Vy
dC1zdGFtcGluZzEZMBcGA1UEAxMQSmFja292IGFsLVRyYWRlczEfMB0GCSqGSIb3
DQEJARYQbm9uZUBmYWtlLmRvbWFpbjAeFw0wMDExMDEyMTA5MzBaFw0wMTExMDEy
MTA5MzBaMIGaMQswCQYDVQQGEwJOWjERMA8GA1UEBxMIQXVja2xhbmQxHjAcBgNV
BAoTFVNpbGx5IENpdHktQm95cyBDb3JwLjEdMBsGA1UECxMUSW50ZXJuYWwgY291
bnNlbGxpbmcxFjAUBgNVBAMTDXR1bmFsYS1jbGllbnQxITAfBgkqhkiG9w0BCQEW
EmNsaWVudEBmYWtlLmRvbWFpbjCBnzANBgkqhkiG9w0BAQEFAAOBjQAwgYkCgYEA
pbKO3gXR/in3RqZroOVBLPdVqFNa6DcaaCld/X6kQLXO4ERUnsb4mkC7RUFXzNyX
2WY+aJ0pkxX5K3WqSX/mz3+VRI5B7QWXHss/AzOwISuJZwjMe7Lv+ibH6iHyd1+9
4mc2CuI97nZP0tPpuyLAuwzkooyqcTt1bEan0htX7vMCAwEAAaOCAUAwggE8MAkG
A1UdEwQCMAAwLAYJYIZIAYb4QgENBB8WHU9wZW5TU0wgR2VuZXJhdGVkIENlcnRp
ZmljYXRlMB0GA1UdDgQWBBR0qIsfW1lVCcuYXC9Bh8qs1LUE/zCB4QYDVR0jBIHZ
MIHWgBRXWl3gcQsM4A9Rh94IyCXn94dGwKGBuqSBtzCBtDELMAkGA1UEBhMCTlox
EzARBgNVBAcTCldlbGxpbmd0b24xPDA6BgNVBAoTM1JlYWxseSBJcnJlc3BvbnNp
YmxlIEF1dGhvcmlzYXRpb24gQXV0aG9yaXR5IChSSUFBKTEWMBQGA1UECxMNQ2Vy
dC1zdGFtcGluZzEZMBcGA1UEAxMQSmFja292IGFsLVRyYWRlczEfMB0GCSqGSIb3
DQEJARYQbm9uZUBmYWtlLmRvbWFpboIBADANBgkqhkiG9w0BAQQFAAOBgQBfNnR3
HcdWcdMyMBKPTY4lkByzLuDBd3XqLKrvgsjghozf3OGGaIGRHk5WsV2Tb4AQgMPY
xDsPIN1DtfgJpLupBBHg1PnZgxkq2ny7TMJPV0MNGh4xYfskYpJ0EpxR7xI+I+RF
ZiusAGC/oP9D2pXDz2RA0peNwd0mzl+5oeqSMg==
-----END CERTIFICATE-----

-----BEGIN RSA PRIVATE KEY-----
MIICWwIBAAKBgQClso7eBdH+KfdGpmug5UEs91WoU1roNxpoKV39fqRAtc7gRFSe
xviaQLtFQVfM3JfZZj5onSmTFfkrdapJf+bPf5VEjkHtBZceyz8DM7AhK4lnCMx7
su/6JsfqIfJ3X73iZzYK4j3udk/S0+m7IsC7DOSijKpxO3VsRqfSG1fu8wIDAQAB
AoGAUWBCHfQJz6NYl8//p8MvoR/PZ52YVddKFsHKMUbS8BzZ/vZQALKDQW5tCnQu
5KOpx9EY8VPOKThvaNKe0P4Joi+ozOm9UHABAQAL/dzk6NP4NG/GYoBdYDhRowbo
3mdxgbJ95INznK3WhGZNGnhd4umz0P67U2xyc5PklKqCGuECQQDcZQE0ZTi1hQ7Z
hStH5h0soyz9VQrx9wF5nfC64lKbh0f6k/pRJqanJ9EDE9od1tuxyWi0IGhOWGC0
LPeB3S+LAkEAwHdptzi+c4hsGqoAEIuYvXah02LOYS2nCpcOssy3jwj8u6IWqiDf
KGt8J3S5u1afRIca9wgJiFME754FYdQrOQJACerNnBL1800Sdv1EDk8vfuO00Y1z
GaI4wcU2oOIwP2ld9suT1vT7SMhE4nORPAiACEb83CYdK3FUoKbpWEGgswJAe8aP
+yAIAz7x3vgDUKCmGvqHOe2qMf7tFTduYXicd+Vcu8KS9thrC5CMaMd9hsg/Zw/I
PKQzlTNm0j760R5kqQJAeO239gMrscKDFvsqSYr3UKf7uJxCetikhVZE1LH//WiM
Rl5jhu6fL9FgNWuyM0z8VTIgZAX6RwZdn1fb3mFYjw==
-----END RSA PRIVATE KEY-----
