Certificate:
    Data:
        Version: 3 (0x2)
        Serial Number: 2 (0x2)
        Signature Algorithm: md5WithRSAEncryption
        Issuer: C=NZ, L=Wellington, O=Really Irresponsible Authorisation Authority (RIAA), OU=Cert-stamping, CN=Jackov al-Trades/Email=none@fake.domain
        Validity
            Not Before: Nov  1 21:14:03 2000 GMT
            Not After : Nov  1 21:14:03 2001 GMT
        Subject: C=NZ, L=Wellington, O=The Stuff of Culture and Taste, OU=SSL dev things, CN=tunala-server/Email=server@fake.domain
        Subject Public Key Info:
            Public Key Algorithm: rsaEncryption
            RSA Public Key: (1024 bit)
                Modulus (1024 bit):
                    00:a7:07:a0:70:5e:76:4e:98:46:70:0e:53:e3:09:
                    f4:18:7b:c2:7e:8a:d9:3c:12:52:24:9f:bf:76:e1:
                    0e:ca:99:c0:ed:fb:0f:7c:d1:1a:6d:9c:1f:e0:19:
                    3a:65:a4:00:26:19:5b:5f:0e:6d:a2:b0:49:0c:28:
                    40:c5:43:94:55:57:50:d4:28:8a:35:3c:73:f3:bb:
                    5a:14:1f:ac:85:ba:b1:20:26:98:9a:92:94:96:fb:
                    90:1d:c4:18:04:f5:7e:f1:21:d7:34:5c:6e:14:b6:
                    9b:48:ac:85:c0:50:d9:cf:79:67:a8:9e:3f:80:6c:
                    ff:68:95:4c:52:95:c9:23:41
                Exponent: 65537 (0x10001)
        X509v3 extensions:
            X509v3 Basic Constraints: 
                CA:FALSE
            Netscape Comment: 
                OpenSSL Generated Certificate
            X509v3 Subject Key Identifier: 
                9F:91:73:D0:8D:11:13:25:8B:68:2A:40:57:8D:96:B7:62:0B:6E:0E
            X509v3 Authority Key Identifier: 
                keyid:57:5A:5D:E0:71:0B:0C:E0:0F:51:87:DE:08:C8:25:E7:F7:87:46:C0
                DirName:/C=NZ/L=Wellington/O=Really Irresponsible Authorisation Authority (RIAA)/OU=Cert-stamping/CN=Jackov al-Trades/Email=none@fake.domain
                serial:00

    Signature Algorithm: md5WithRSAEncryption
        27:c3:c3:d8:2e:b2:12:0c:b0:4c:bd:a4:d0:34:77:fe:13:6f:
        5e:8d:2c:50:c9:b5:a7:80:16:79:73:68:45:a1:5a:ed:74:d8:
        7c:92:f4:04:c0:6b:da:a5:ca:6d:03:2c:cc:f9:32:f9:fb:b9:
        be:83:5a:4b:c5:54:1d:07:02:a4:78:c4:90:49:f6:bb:0f:32:
        57:86:ff:17:99:7a:a0:85:5f:ee:45:db:28:5f:91:66:d2:35:
        54:d7:c2:55:26:ff:ea:b7:3a:d0:3f:fd:6a:dd:26:35:3f:18:
        4e:c5:fa:36:d6:71:41:05:a0:4a:49:5d:b7:87:ee:6f:38:17:
        9a:4a
-----BEGIN CERTIFICATE-----
MIIEDTCCA3agAwIBAgIBAjANBgkqhkiG9w0BAQQFADCBtDELMAkGA1UEBhMCTlox
EzARBgNVBAcTCldlbGxpbmd0b24xPDA6BgNVBAoTM1JlYWxseSBJcnJlc3BvbnNp
YmxlIEF1dGhvcmlzYXRpb24gQXV0aG9yaXR5IChSSUFBKTEWMBQGA1UECxMNQ2Vy
dC1zdGFtcGluZzEZMBcGA1UEAxMQSmFja292IGFsLVRyYWRlczEfMB0GCSqGSIb3
DQEJARYQbm9uZUBmYWtlLmRvbWFpbjAeFw0wMDExMDEyMTE0MDNaFw0wMTExMDEy
MTE0MDNaMIGfMQswCQYDVQQGEwJOWjETMBEGA1UEBxMKV2VsbGluZ3RvbjEnMCUG
A1UEChMeVGhlIFN0dWZmIG9mIEN1bHR1cmUgYW5kIFRhc3RlMRcwFQYDVQQLEw5T
U0wgZGV2IHRoaW5nczEWMBQGA1UEAxMNdHVuYWxhLXNlcnZlcjEhMB8GCSqGSIb3
DQEJARYSc2VydmVyQGZha2UuZG9tYWluMIGfMA0GCSqGSIb3DQEBAQUAA4GNADCB
iQKBgQCnB6BwXnZOmEZwDlPjCfQYe8J+itk8ElIkn7924Q7KmcDt+w980RptnB/g
GTplpAAmGVtfDm2isEkMKEDFQ5RVV1DUKIo1PHPzu1oUH6yFurEgJpiakpSW+5Ad
xBgE9X7xIdc0XG4UtptIrIXAUNnPeWeonj+AbP9olUxSlckjQQIDAQABo4IBQDCC
ATwwCQYDVR0TBAIwADAsBglghkgBhvhCAQ0EHxYdT3BlblNTTCBHZW5lcmF0ZWQg
Q2VydGlmaWNhdGUwHQYDVR0OBBYEFJ+Rc9CNERMli2gqQFeNlrdiC24OMIHhBgNV
HSMEgdkwgdaAFFdaXeBxCwzgD1GH3gjIJef3h0bAoYG6pIG3MIG0MQswCQYDVQQG
EwJOWjETMBEGA1UEBxMKV2VsbGluZ3RvbjE8MDoGA1UEChMzUmVhbGx5IElycmVz
cG9uc2libGUgQXV0aG9yaXNhdGlvbiBBdXRob3JpdHkgKFJJQUEpMRYwFAYDVQQL
Ew1DZXJ0LXN0YW1waW5nMRkwFwYDVQQDExBKYWNrb3YgYWwtVHJhZGVzMR8wHQYJ
KoZIhvcNAQkBFhBub25lQGZha2UuZG9tYWluggEAMA0GCSqGSIb3DQEBBAUAA4GB
ACfDw9gushIMsEy9pNA0d/4Tb16NLFDJtaeAFnlzaEWhWu102HyS9ATAa9qlym0D
LMz5Mvn7ub6DWkvFVB0HAqR4xJBJ9rsPMleG/xeZeqCFX+5F2yhfkWbSNVTXwlUm
/+q3OtA//WrdJjU/GE7F+jbWcUEFoEpJXbeH7m84F5pK
-----END CERTIFICATE-----

-----BEGIN RSA PRIVATE KEY-----
MIICXAIBAAKBgQCnB6BwXnZOmEZwDlPjCfQYe8J+itk8ElIkn7924Q7KmcDt+w98
0RptnB/gGTplpAAmGVtfDm2isEkMKEDFQ5RVV1DUKIo1PHPzu1oUH6yFurEgJpia
kpSW+5AdxBgE9X7xIdc0XG4UtptIrIXAUNnPeWeonj+AbP9olUxSlckjQQIDAQAB
AoGAJPm/PqDqt8Nl9HB3iY8uhiz/hVvfczjrDkh+7iYsTBV1bDlj2FHB8/nX5Jgx
IUcI8WYzn/tlsdoskZBnpkOrlk0naOsgQk7Osh7Dn5sprRU0ieCgFhD/2DJNjJUE
ZfHrjXwr8LeG2CMa/FzkfkjDPC40gT8plbTOXmLECrjiEnECQQDaukSpJHX4JVtL
08j/mmKoBtBBVyzcSdxxHRXKBp+ivdszHC82oKH4yKwFdsfP6lX7iRsjKWIkdIiA
M9ZDF4TLAkEAw34aSYXWJttRr91HZ+aDXbxTnaaqdrwP1hUJM7dH/a1DQDoxV1vR
SWDX8YHSXgqPsxNtlW8bRtjh5cNWeZICowJAeS1A5MRCZxurHLNUY+dQSO6dadW2
EMUKz8/hRm+s+ShdzE8NCSKtGXtzcgOAZ3vX7ubilfRTXwcAqKYPSlQ5SQJAFg2G
p56abt201FLw+C6PySYyhIlFl4lVe//5fsUBMQO3n2oxILqx3EY5dfwAIC2u0jOx
2/ahrBdRPFsRyTsIYwJBALAxKM5g7Qw0JgQ3gJnczY3/rpwlUhayYRYrNy1pJKp3
hlVv+s5Oy1vXXppVfm830Eii7hsVp5PCFN+jRQhkFqw=
-----END RSA PRIVATE KEY-----
