Certificate:
    Data:
        Version: 3 (0x2)
        Serial Number:
            18:45:8f:30:1d:fe:dc:22:9d:95:40:8c:e5:36:f9:38:0d:d5:58:a0
        Signature Algorithm: sha256WithRSAEncryption
        Issuer: CN=Root CA
        Validity
            Not Before: Oct  6 18:36:12 2023 GMT
            Not After : Sep 12 18:36:12 2123 GMT
        Subject: CN=server.example
        Subject Public Key Info:
            Public Key Algorithm: rsaEncryption
                Public-Key: (2048 bit)
                Modulus:
                    00:89:1c:db:38:7b:6e:ca:8d:d6:14:f0:88:22:4f:
                    9d:fd:59:b1:25:d7:a1:2f:7b:ab:6e:d5:41:69:19:
                    d9:2a:b0:71:fc:fb:27:1e:a0:59:0c:59:27:69:af:
                    e4:a1:dc:f6:03:46:4f:c4:93:4a:81:df:7b:8a:cb:
                    71:4a:94:87:a3:b6:89:71:56:10:72:6e:d8:da:e7:
                    36:0c:99:55:e7:44:7b:01:fe:a7:bb:16:0c:8c:fe:
                    5b:f4:c6:d3:b5:9d:f4:86:16:45:59:57:3d:7e:c5:
                    63:eb:6a:c9:49:37:75:38:1c:f6:9a:2f:84:86:82:
                    1c:39:28:84:43:f0:53:f1:d7:be:2f:f0:50:ce:05:
                    e5:61:9f:aa:73:4c:af:f1:a5:37:aa:5c:bb:c0:03:
                    18:0f:84:5f:90:1c:e4:34:a5:35:eb:38:76:da:88:
                    ae:25:fb:c2:5f:56:6f:b4:7c:22:63:32:74:f6:d2:
                    69:86:b9:33:63:bd:d5:99:e1:72:20:3c:f6:24:11:
                    0a:df:d4:2a:5d:38:d7:14:92:28:85:72:97:18:b5:
                    b5:52:d1:8c:82:f7:5a:aa:24:b2:85:bf:9d:5e:92:
                    2f:52:4f:05:10:21:29:f9:8c:b5:88:45:09:57:90:
                    15:e1:2b:a6:86:96:42:d6:9e:8b:ff:92:aa:94:58:
                    44:13
                Exponent: 65537 (0x10001)
        X509v3 extensions:
            X509v3 Basic Constraints: 
                CA:FALSE
            X509v3 Subject Key Identifier: 
                8C:E0:38:04:70:7E:B4:CB:1F:BF:AA:E6:67:42:74:63:46:88:58:74
            X509v3 Authority Key Identifier: 
                70:7F:2E:AE:83:68:59:98:04:23:2A:CD:EB:3E:17:CD:24:DD:01:49
            X509v3 Subject Alternative Name: 
                DNS:*.server.example, DNS:server.example
    Signature Algorithm: sha256WithRSAEncryption
    Signature Value:
        9b:fe:bc:b1:40:d4:08:91:f6:1f:b4:0f:8c:50:ac:49:36:6f:
        27:93:e8:94:13:bc:fe:1a:2a:cf:93:98:13:b3:b4:85:a5:62:
        4d:58:8f:da:cd:f7:1b:c3:1f:42:ba:2a:89:45:11:33:49:86:
        2c:3a:0a:99:17:4f:0c:f1:1e:35:31:2c:69:f9:15:d5:37:54:
        cc:9e:e3:67:9f:d5:6e:ad:b1:26:60:df:aa:84:63:da:a7:31:
        c9:69:a0:d8:c2:96:d3:82:b4:99:70:8c:3c:92:a4:c0:f0:7c:
        3f:04:d3:29:4f:6c:c5:fd:39:12:95:65:7f:37:fb:52:5b:12:
        99:d6:d7:b5:ba:44:6e:36:ec:5d:f2:5d:d4:aa:2d:8a:46:ce:
        29:66:c1:ed:36:13:f2:f3:ae:92:4a:97:db:99:ed:8f:4e:4e:
        ed:73:1b:fa:3e:64:63:40:5c:c2:03:76:2c:dc:58:01:3f:17:
        d0:ae:a6:b2:64:85:47:ba:7d:5a:36:53:e4:90:00:8e:f5:17:
        a5:ff:a3:81:ee:ed:25:ca:10:76:75:2d:65:ff:f8:b1:8c:3c:
        a3:ff:81:12:72:c7:bc:b5:17:06:d8:c6:13:97:cb:8e:58:51:
        2a:a4:be:91:59:40:4b:07:8d:69:2f:92:ee:ea:9c:bf:eb:42:
        b7:62:b8:e3
-----BEGIN CERTIFICATE-----
MIIDNTCCAh2gAwIBAgIUGEWPMB3+3CKdlUCM5Tb5OA3VWKAwDQYJKoZIhvcNAQEL
BQAwEjEQMA4GA1UEAwwHUm9vdCBDQTAgFw0yMzEwMDYxODM2MTJaGA8yMTIzMDkx
MjE4MzYxMlowGTEXMBUGA1UEAwwOc2VydmVyLmV4YW1wbGUwggEiMA0GCSqGSIb3
DQEBAQUAA4IBDwAwggEKAoIBAQCJHNs4e27KjdYU8IgiT539WbEl16Eve6tu1UFp
GdkqsHH8+yceoFkMWSdpr+Sh3PYDRk/Ek0qB33uKy3FKlIejtolxVhBybtja5zYM
mVXnRHsB/qe7FgyM/lv0xtO1nfSGFkVZVz1+xWPraslJN3U4HPaaL4SGghw5KIRD
8FPx174v8FDOBeVhn6pzTK/xpTeqXLvAAxgPhF+QHOQ0pTXrOHbaiK4l+8JfVm+0
fCJjMnT20mmGuTNjvdWZ4XIgPPYkEQrf1CpdONcUkiiFcpcYtbVS0YyC91qqJLKF
v51eki9STwUQISn5jLWIRQlXkBXhK6aGlkLWnov/kqqUWEQTAgMBAAGjejB4MAkG
A1UdEwQCMAAwHQYDVR0OBBYEFIzgOARwfrTLH7+q5mdCdGNGiFh0MB8GA1UdIwQY
MBaAFHB/Lq6DaFmYBCMqzes+F80k3QFJMCsGA1UdEQQkMCKCECouc2VydmVyLmV4
YW1wbGWCDnNlcnZlci5leGFtcGxlMA0GCSqGSIb3DQEBCwUAA4IBAQCb/ryxQNQI
kfYftA+MUKxJNm8nk+iUE7z+GirPk5gTs7SFpWJNWI/azfcbwx9CuiqJRREzSYYs
OgqZF08M8R41MSxp+RXVN1TMnuNnn9VurbEmYN+qhGPapzHJaaDYwpbTgrSZcIw8
kqTA8Hw/BNMpT2zF/TkSlWV/N/tSWxKZ1te1ukRuNuxd8l3Uqi2KRs4pZsHtNhPy
866SSpfbme2PTk7tcxv6PmRjQFzCA3Ys3FgBPxfQrqayZIVHun1aNlPkkACO9Rel
/6OB7u0lyhB2dS1l//ixjDyj/4EScse8tRcG2MYTl8uOWFEqpL6RWUBLB41pL5Lu
6py/60K3Yrjj
-----END CERTIFICATE-----
