Certificate:
    Data:
        Version: 3 (0x2)
        Serial Number: 1 (0x1)
        Signature Algorithm: md5WithRSAEncryption
        Issuer: O=European ICE-TEL project, OU=V3-Certification Authority
        Validity
            Not Before: Apr  2 17:35:53 1997 GMT
            Not After : Apr  2 17:35:53 1998 GMT
        Subject: O=European ICE-TEL project, OU=V3-Certification Authority, L=Darmstadt
        Subject Public Key Info:
            Public Key Algorithm: rsa
            RSA Public Key: (512 bit)
                Modulus (512 bit):
                    00:82:75:ba:f6:d1:60:b5:f9:15:b3:6a:dd:29:8f:
                    8b:a4:6f:1a:88:e0:50:43:40:0b:79:41:d5:d3:16:
                    44:7d:74:65:17:42:06:52:0b:e9:50:c8:10:cd:24:
                    e2:ae:8d:22:30:73:e6:b4:b7:93:1f:e5:6e:a2:ae:
                    49:11:a5:c9:45
                Exponent: 65537 (0x10001)
        X509v3 extensions:
            X509v3 Authority Key Identifier: 
                0.........z.."p......e..
            X509v3 Subject Key Identifier: 
                ..~r..:..B.44fu......3
            X509v3 Key Usage: critical
                ....
            X509v3 Certificate Policies: critical
                0.0...*...
            X509v3 Subject Alternative Name: 
                0!..secude-support@darmstadt.gmd.de
            X509v3 Issuer Alternative Name: 
                0I..ice-tel-ca@darmstadt.gmd.de.*http://www.darmstadt.gmd.de/ice-tel/euroca
            X509v3 Basic Constraints: critical
                0....
            X509v3 CRL Distribution Points: 
                0200...,.*http://www.darmstadt.gmd.de/ice-tel/euroca
    Signature Algorithm: md5WithRSAEncryption
        17:a2:88:b7:99:5a:05:41:e4:13:34:67:e6:1f:3e:26:ec:4b:
        69:f9:3e:28:22:be:9d:1c:ab:41:6f:0c:00:85:fe:45:74:f6:
        98:f0:ce:9b:65:53:4a:50:42:c7:d4:92:bd:d7:a2:a8:3d:98:
        88:73:cd:60:28:79:a3:fc:48:7a
-----BEGIN CERTIFICATE-----
MIICzDCCAnagAwIBAgIBATANBgkqhkiG9w0BAQQFADBIMSEwHwYDVQQKExhFdXJv
cGVhbiBJQ0UtVEVMIHByb2plY3QxIzAhBgNVBAsTGlYzLUNlcnRpZmljYXRpb24g
QXV0aG9yaXR5MB4XDTk3MDQwMjE3MzU1M1oXDTk4MDQwMjE3MzU1M1owXDEhMB8G
A1UEChMYRXVyb3BlYW4gSUNFLVRFTCBwcm9qZWN0MSMwIQYDVQQLExpWMy1DZXJ0
aWZpY2F0aW9uIEF1dGhvcml0eTESMBAGA1UEBxMJRGFybXN0YWR0MFkwCgYEVQgB
AQICAgADSwAwSAJBAIJ1uvbRYLX5FbNq3SmPi6RvGojgUENAC3lB1dMWRH10ZRdC
BlIL6VDIEM0k4q6NIjBz5rS3kx/lbqKuSRGlyUUCAwEAAaOCATgwggE0MB8GA1Ud
IwQYMBaAFIr3yNUOx3ro1yJw4AuJ1bbsZbzPMB0GA1UdDgQWBBR+cvL4OoacQog0
NGZ1w9T80aIRMzAOBgNVHQ8BAf8EBAMCAfYwFAYDVR0gAQH/BAowCDAGBgQqAwQF
MCoGA1UdEQQjMCGBH3NlY3VkZS1zdXBwb3J0QGRhcm1zdGFkdC5nbWQuZGUwUgYD
VR0SBEswSYEbaWNlLXRlbC1jYUBkYXJtc3RhZHQuZ21kLmRlhipodHRwOi8vd3d3
LmRhcm1zdGFkdC5nbWQuZGUvaWNlLXRlbC9ldXJvY2EwDwYDVR0TAQH/BAUwAwEB
/zA7BgNVHR8ENDAyMDCgLqAshipodHRwOi8vd3d3LmRhcm1zdGFkdC5nbWQuZGUv
aWNlLXRlbC9ldXJvY2EwDQYJKoZIhvcNAQEEBQADQQAXooi3mVoFQeQTNGfmHz4m
7Etp+T4oIr6dHKtBbwwAhf5FdPaY8M6bZVNKUELH1JK916KoPZiIc81gKHmj/Eh6
-----END CERTIFICATE-----
