Certificate:
    Data:
        Version: 3 (0x2)
        Serial Number: 0 (0x0)
        Signature Algorithm: md5WithRSAEncryption
        Issuer: O=European ICE-TEL project, OU=V3-Certification Authority
        Validity
            Not Before: Apr  2 17:33:36 1997 GMT
            Not After : Apr  2 17:33:36 1998 GMT
        Subject: O=European ICE-TEL project, OU=V3-Certification Authority
        Subject Public Key Info:
            Public Key Algorithm: rsa
            RSA Public Key: (512 bit)
                Modulus (512 bit):
                    00:80:3e:eb:ae:47:a9:fe:10:54:0b:81:8b:9c:2b:
                    82:ab:3a:61:36:65:8b:f3:73:9f:ac:ac:7a:15:a7:
                    13:8f:b4:c4:ba:a3:0f:bc:a5:58:8d:cc:b1:93:31:
                    9e:81:9e:8c:19:61:86:fa:52:73:54:d1:97:76:22:
                    e7:c7:9f:41:cd
                Exponent: 65537 (0x10001)
        X509v3 extensions:
            X509v3 Subject Key Identifier: 
                ........z.."p......e..
            X509v3 Key Usage: critical
                ....
            X509v3 Subject Alternative Name: 
                0I.*http://www.darmstadt.gmd.de/ice-tel/euroca..ice-tel-ca@darmstadt.gmd.de
            X509v3 Basic Constraints: critical
                0....
    Signature Algorithm: md5WithRSAEncryption
        76:69:61:db:b7:cf:8b:06:9e:d8:8c:96:53:d2:4d:a8:23:a6:
        03:44:e8:8f:24:a5:c0:84:a8:4b:77:d4:2d:2b:7d:37:91:67:
        f2:2c:ce:02:31:4c:6b:cc:ce:f2:68:a6:11:11:ab:7d:88:b8:
        7e:22:9f:25:06:60:bd:79:30:3d
-----BEGIN CERTIFICATE-----
MIICFjCCAcCgAwIBAgIBADANBgkqhkiG9w0BAQQFADBIMSEwHwYDVQQKExhFdXJv
cGVhbiBJQ0UtVEVMIHByb2plY3QxIzAhBgNVBAsTGlYzLUNlcnRpZmljYXRpb24g
QXV0aG9yaXR5MB4XDTk3MDQwMjE3MzMzNloXDTk4MDQwMjE3MzMzNlowSDEhMB8G
A1UEChMYRXVyb3BlYW4gSUNFLVRFTCBwcm9qZWN0MSMwIQYDVQQLExpWMy1DZXJ0
aWZpY2F0aW9uIEF1dGhvcml0eTBZMAoGBFUIAQECAgIAA0sAMEgCQQCAPuuuR6n+
EFQLgYucK4KrOmE2ZYvzc5+srHoVpxOPtMS6ow+8pViNzLGTMZ6BnowZYYb6UnNU
0Zd2IufHn0HNAgMBAAGjgZcwgZQwHQYDVR0OBBYEFIr3yNUOx3ro1yJw4AuJ1bbs
ZbzPMA4GA1UdDwEB/wQEAwIB9jBSBgNVHREESzBJhipodHRwOi8vd3d3LmRhcm1z
dGFkdC5nbWQuZGUvaWNlLXRlbC9ldXJvY2GBG2ljZS10ZWwtY2FAZGFybXN0YWR0
LmdtZC5kZTAPBgNVHRMBAf8EBTADAQH/MA0GCSqGSIb3DQEBBAUAA0EAdmlh27fP
iwae2IyWU9JNqCOmA0TojySlwISoS3fULSt9N5Fn8izOAjFMa8zO8mimERGrfYi4
fiKfJQZgvXkwPQ==
-----END CERTIFICATE-----
