Certificate:
    Data:
        Version: 3 (0x2)
        Serial Number: 1 (0x1)
        Signature Algorithm: md5WithRSAEncryption
        Issuer: O=European ICE-TEL project, OU=V3-Certification Authority, L=Darmstadt
        Validity
            Not Before: Apr  2 17:35:59 1997 GMT
            Not After : Apr  2 17:35:59 1998 GMT
        Subject: O=European ICE-TEL project, OU=V3-Certification Authority, L=Darmstadt, CN=USER
        Subject Public Key Info:
            Public Key Algorithm: rsa
            RSA Public Key: (512 bit)
                Modulus (512 bit):
                    00:a8:a8:53:63:49:1b:93:c3:c3:0b:6c:88:11:55:
                    de:7e:6a:e2:f9:52:a0:dc:69:25:c4:c8:bf:55:e1:
                    31:a8:ce:e4:a9:29:85:99:8a:15:9a:de:f6:2f:e1:
                    b4:50:5f:5e:04:75:a6:f4:76:dc:3c:0e:39:dc:3a:
                    be:3e:a4:61:8b
                Exponent: 65537 (0x10001)
        X509v3 extensions:
            X509v3 Authority Key Identifier: 
                0...~r..:..B.44fu......3
            X509v3 Subject Key Identifier: 
                ...... .*...1.*.......
            X509v3 Key Usage: critical
                ....
            X509v3 Certificate Policies: critical
                0.0...*...0.......
            X509v3 Subject Alternative Name: 
                0:..user@darmstadt.gmd.de.!http://www.darmstadt.gmd.de/~user
            X509v3 Issuer Alternative Name: 
                0....gmdca@gmd.de..http://www.gmd.de..saturn.darmstadt.gmd.de.\1!0...U.
..European ICE-TEL project1#0!..U....V3-Certification Authority1.0...U....Darmstadt..141.12.62.26
            X509v3 Basic Constraints: critical
                0.
            X509v3 CRL Distribution Points: 
                0.0.......gmdca@gmd.de
    Signature Algorithm: md5WithRSAEncryption
        69:0c:e1:b7:a7:f2:d8:fb:e8:69:c0:13:cd:37:ad:21:06:22:
        4d:e8:c6:db:f1:04:0b:b7:e0:b3:d6:0c:81:03:ce:c3:6a:3e:
        c7:e7:24:24:a4:92:64:c2:83:83:06:42:53:0e:6f:09:1e:84:
        9a:f7:6f:63:9b:94:99:83:d6:a4
-----BEGIN CERTIFICATE-----
MIIDTzCCAvmgAwIBAgIBATANBgkqhkiG9w0BAQQFADBcMSEwHwYDVQQKExhFdXJv
cGVhbiBJQ0UtVEVMIHByb2plY3QxIzAhBgNVBAsTGlYzLUNlcnRpZmljYXRpb24g
QXV0aG9yaXR5MRIwEAYDVQQHEwlEYXJtc3RhZHQwHhcNOTcwNDAyMTczNTU5WhcN
OTgwNDAyMTczNTU5WjBrMSEwHwYDVQQKExhFdXJvcGVhbiBJQ0UtVEVMIHByb2pl
Y3QxIzAhBgNVBAsTGlYzLUNlcnRpZmljYXRpb24gQXV0aG9yaXR5MRIwEAYDVQQH
EwlEYXJtc3RhZHQxDTALBgNVBAMTBFVTRVIwWTAKBgRVCAEBAgICAANLADBIAkEA
qKhTY0kbk8PDC2yIEVXefmri+VKg3GklxMi/VeExqM7kqSmFmYoVmt72L+G0UF9e
BHWm9HbcPA453Dq+PqRhiwIDAQABo4IBmDCCAZQwHwYDVR0jBBgwFoAUfnLy+DqG
nEKINDRmdcPU/NGiETMwHQYDVR0OBBYEFJfc4B8gjSoRmLUx4Sq/ucIYiMrPMA4G
A1UdDwEB/wQEAwIB8DAcBgNVHSABAf8EEjAQMAYGBCoDBAUwBgYECQgHBjBDBgNV
HREEPDA6gRV1c2VyQGRhcm1zdGFkdC5nbWQuZGWGIWh0dHA6Ly93d3cuZGFybXN0
YWR0LmdtZC5kZS9+dXNlcjCBsQYDVR0SBIGpMIGmgQxnbWRjYUBnbWQuZGWGEWh0
dHA6Ly93d3cuZ21kLmRlghdzYXR1cm4uZGFybXN0YWR0LmdtZC5kZaRcMSEwHwYD
VQQKExhFdXJvcGVhbiBJQ0UtVEVMIHByb2plY3QxIzAhBgNVBAsTGlYzLUNlcnRp
ZmljYXRpb24gQXV0aG9yaXR5MRIwEAYDVQQHEwlEYXJtc3RhZHSHDDE0MS4xMi42
Mi4yNjAMBgNVHRMBAf8EAjAAMB0GA1UdHwQWMBQwEqAQoA6BDGdtZGNhQGdtZC5k
ZTANBgkqhkiG9w0BAQQFAANBAGkM4ben8tj76GnAE803rSEGIk3oxtvxBAu34LPW
DIEDzsNqPsfnJCSkkmTCg4MGQlMObwkehJr3b2OblJmD1qQ=
-----END CERTIFICATE-----
