Certificate:
    Data:
        Version: 3 (0x2)
        Serial Number: 1 (0x1)
        Signature Algorithm: ecdsa-with-SHA256
        Issuer: O=Example CA
        Validity
            Not Before: Dec 24 14:25:11 2019 GMT
            Not After : Dec 24 14:25:11 2034 GMT
        Subject: O=Example CA
        Subject Public Key Info:
            Public Key Algorithm: id-ecPublicKey
                Public-Key: (256 bit)
                pub:
                    04:16:b6:ee:98:0d:ea:02:db:2a:84:af:0c:50:d8:
                    85:bb:11:86:a5:86:0d:2b:e0:0e:ad:47:9b:85:ce:
                    c2:54:87:5e:12:b6:b5:8a:d8:e8:bc:4a:e7:92:e6:
                    62:15:4d:b4:fd:c1:26:75:7a:78:41:99:76:77:85:
                    56:ab:48:24:ef
                ASN1 OID: brainpoolP256r1
        X509v3 extensions:
            X509v3 Basic Constraints: critical
                CA:TRUE
            X509v3 Key Usage: critical
                Certificate Sign, CRL Sign
            X509v3 Subject Key Identifier: 
                97:9C:53:A3:8F:54:1A:1A:05:B5:D0:50:20:10:17:AF:E1:B7:63:9C
            X509v3 Authority Key Identifier: 
                97:9C:53:A3:8F:54:1A:1A:05:B5:D0:50:20:10:17:AF:E1:B7:63:9C
    Signature Algorithm: ecdsa-with-SHA256
    Signature Value:
        30:44:02:20:7e:2d:c8:c5:5a:27:a7:fb:fd:1e:f7:15:a3:fe:
        fe:72:af:4d:e1:f8:5d:ec:87:0e:ab:d8:c2:0b:80:1c:8a:30:
        02:20:41:aa:4f:35:21:5f:6d:72:06:13:9b:b6:07:77:59:d3:
        32:83:6a:43:b3:33:c5:fe:74:70:b7:c4:7e:69:f9:ec
-----BEGIN CERTIFICATE-----
MIIBfDCCASOgAwIBAgIBATAKBggqhkjOPQQDAjAVMRMwEQYDVQQKDApFeGFtcGxl
IENBMB4XDTE5MTIyNDE0MjUxMVoXDTM0MTIyNDE0MjUxMVowFTETMBEGA1UECgwK
RXhhbXBsZSBDQTBaMBQGByqGSM49AgEGCSskAwMCCAEBBwNCAAQWtu6YDeoC2yqE
rwxQ2IW7EYalhg0r4A6tR5uFzsJUh14StrWK2Oi8SueS5mIVTbT9wSZ1enhBmXZ3
hVarSCTvo2MwYTAPBgNVHRMBAf8EBTADAQH/MA4GA1UdDwEB/wQEAwIBBjAdBgNV
HQ4EFgQUl5xTo49UGhoFtdBQIBAXr+G3Y5wwHwYDVR0jBBgwFoAUl5xTo49UGhoF
tdBQIBAXr+G3Y5wwCgYIKoZIzj0EAwIDRwAwRAIgfi3IxVonp/v9HvcVo/7+cq9N
4fhd7IcOq9jCC4AcijACIEGqTzUhX21yBhObtgd3WdMyg2pDszPF/nRwt8R+afns
-----END CERTIFICATE-----
