Certificate:
    Data:
        Version: 3 (0x2)
        Serial Number: 2 (0x2)
        Signature Algorithm: ecdsa-with-SHA256
        Issuer: O=Example CA
        Validity
            Not Before: Dec 24 14:25:11 2024 GMT
            Not After : Dec 24 14:25:11 2025 GMT
        Subject: CN=localhost
        Subject Public Key Info:
            Public Key Algorithm: id-ecPublicKey
                Public-Key: (384 bit)
                pub:
                    04:1d:44:bd:17:41:64:a6:46:11:94:2a:20:fa:bf:
                    1b:8d:c0:f1:05:f1:b7:4d:71:a4:83:ca:44:5a:fc:
                    23:4e:07:e3:55:ac:de:ba:75:66:61:61:07:be:ae:
                    f4:46:fc:ea:7f:7b:aa:d0:fc:27:65:28:1b:d9:74:
                    44:31:75:04:34:86:73:08:0b:83:62:12:30:e7:1e:
                    54:fc:be:1c:c4:7c:be:ee:f5:9b:36:7e:a4:e2:bf:
                    f8:e0:e8:29:d0:54:b3
                ASN1 OID: brainpoolP384r1
        X509v3 extensions:
            X509v3 Key Usage: critical
                Digital Signature, Key Encipherment, Key Agreement
            X509v3 Extended Key Usage: 
                TLS Web Server Authentication
            X509v3 Subject Key Identifier: 
                A3:E0:83:85:1A:6E:EE:E5:4F:E4:27:5A:BE:18:39:83:E0:01:0C:C8
            X509v3 Authority Key Identifier: 
                8A:98:2E:08:7A:22:9E:55:6D:04:77:25:28:2C:5A:E2:97:ED:1C:B8
    Signature Algorithm: ecdsa-with-SHA256
    Signature Value:
        30:64:02:30:5b:01:78:97:75:de:47:19:48:e6:be:9c:79:6c:
        29:a0:ef:63:68:0a:ab:b7:8e:a0:68:9b:38:25:4e:1e:b8:ad:
        9d:77:93:f6:bc:17:73:96:e3:3a:44:1d:a6:e7:a7:24:02:30:
        1c:a0:fd:ff:d0:e7:54:5b:a4:fa:9d:c3:23:ea:0d:24:e5:e9:
        a2:68:dd:dc:24:9c:29:1e:d5:8b:60:ac:ea:c9:67:6a:58:a9:
        5e:ce:da:31:16:d0:dc:17:3a:86:18:bd
-----BEGIN CERTIFICATE-----
MIIBvzCCAUagAwIBAgIBAjAKBggqhkjOPQQDAjAVMRMwEQYDVQQKDApFeGFtcGxl
IENBMB4XDTI0MTIyNDE0MjUxMVoXDTI1MTIyNDE0MjUxMVowFDESMBAGA1UEAwwJ
bG9jYWxob3N0MHowFAYHKoZIzj0CAQYJKyQDAwIIAQELA2IABB1EvRdBZKZGEZQq
IPq/G43A8QXxt01xpIPKRFr8I04H41Ws3rp1ZmFhB76u9Eb86n97qtD8J2UoG9l0
RDF1BDSGcwgLg2ISMOceVPy+HMR8vu71mzZ+pOK/+ODoKdBUs6NnMGUwDgYDVR0P
AQH/BAQDAgOoMBMGA1UdJQQMMAoGCCsGAQUFBwMBMB0GA1UdDgQWBBSj4IOFGm7u
5U/kJ1q+GDmD4AEMyDAfBgNVHSMEGDAWgBSKmC4IeiKeVW0EdyUoLFril+0cuDAK
BggqhkjOPQQDAgNnADBkAjBbAXiXdd5HGUjmvpx5bCmg72NoCqu3jqBomzglTh64
rZ13k/a8F3OW4zpEHabnpyQCMByg/f/Q51RbpPqdwyPqDSTl6aJo3dwknCke1Ytg
rOrJZ2pYqV7O2jEW0NwXOoYYvQ==
-----END CERTIFICATE-----
