Certificate:
    Data:
        Version: 3 (0x2)
        Serial Number: 1 (0x1)
        Signature Algorithm: ecdsa-with-SHA256
        Issuer: O=Example CA
        Validity
            Not Before: Dec 24 14:25:11 2019 GMT
            Not After : Dec 24 14:25:11 2034 GMT
        Subject: O=Example CA
        Subject Public Key Info:
            Public Key Algorithm: id-ecPublicKey
                Public-Key: (384 bit)
                pub:
                    04:61:88:fb:23:f0:d1:21:32:d7:e5:a6:10:43:b6:
                    cb:73:7b:d3:d1:f8:8a:e4:c2:9a:45:67:5c:b5:d8:
                    01:d8:f1:db:42:65:6b:77:ee:ec:22:1a:a3:3f:b1:
                    50:ac:57:21:29:49:59:08:42:01:e6:1d:dc:27:a3:
                    10:99:fa:0c:34:65:c2:f4:8d:bc:e7:38:4f:40:54:
                    2e:47:3e:98:01:85:53:e8:c3:79:52:f8:d5:24:8a:
                    f7:51:e8:94:00:ea:9d
                ASN1 OID: brainpoolP384r1
        X509v3 extensions:
            X509v3 Basic Constraints: critical
                CA:TRUE
            X509v3 Key Usage: critical
                Certificate Sign, CRL Sign
            X509v3 Subject Key Identifier: 
                8A:98:2E:08:7A:22:9E:55:6D:04:77:25:28:2C:5A:E2:97:ED:1C:B8
            X509v3 Authority Key Identifier: 
                8A:98:2E:08:7A:22:9E:55:6D:04:77:25:28:2C:5A:E2:97:ED:1C:B8
    Signature Algorithm: ecdsa-with-SHA256
    Signature Value:
        30:65:02:30:4e:03:29:b3:4b:20:5c:b3:fa:ad:22:e5:e1:eb:
        09:56:38:d6:67:f6:8b:fc:d5:78:ab:95:e3:26:aa:04:03:dc:
        d9:d3:e7:47:d2:7f:e7:44:ae:8d:a8:cd:a5:13:74:75:02:31:
        00:85:17:23:e2:92:b9:42:a1:ef:fa:f5:6b:13:d4:4d:49:ab:
        02:ed:9a:7c:86:a1:09:8c:f3:3d:70:0c:bd:cf:38:d2:a0:59:
        0b:11:d0:0b:3e:b9:26:10:31:7a:33:8e:bf
-----BEGIN CERTIFICATE-----
MIIBvTCCAUOgAwIBAgIBATAKBggqhkjOPQQDAjAVMRMwEQYDVQQKDApFeGFtcGxl
IENBMB4XDTE5MTIyNDE0MjUxMVoXDTM0MTIyNDE0MjUxMVowFTETMBEGA1UECgwK
RXhhbXBsZSBDQTB6MBQGByqGSM49AgEGCSskAwMCCAEBCwNiAARhiPsj8NEhMtfl
phBDtstze9PR+IrkwppFZ1y12AHY8dtCZWt37uwiGqM/sVCsVyEpSVkIQgHmHdwn
oxCZ+gw0ZcL0jbznOE9AVC5HPpgBhVPow3lS+NUkivdR6JQA6p2jYzBhMA8GA1Ud
EwEB/wQFMAMBAf8wDgYDVR0PAQH/BAQDAgEGMB0GA1UdDgQWBBSKmC4IeiKeVW0E
dyUoLFril+0cuDAfBgNVHSMEGDAWgBSKmC4IeiKeVW0EdyUoLFril+0cuDAKBggq
hkjOPQQDAgNoADBlAjBOAymzSyBcs/qtIuXh6wlWONZn9ov81XirleMmqgQD3NnT
50fSf+dEro2ozaUTdHUCMQCFFyPikrlCoe/69WsT1E1JqwLtmnyGoQmM8z1wDL3P
ONKgWQsR0As+uSYQMXozjr8=
-----END CERTIFICATE-----
