Certificate:
    Data:
        Version: 3 (0x2)
        Serial Number: 2 (0x2)
        Signature Algorithm: ecdsa-with-SHA256
        Issuer: O=Example CA
        Validity
            Not Before: Dec 24 14:25:11 2024 GMT
            Not After : Dec 24 14:25:11 2025 GMT
        Subject: CN=localhost
        Subject Public Key Info:
            Public Key Algorithm: id-ecPublicKey
                Public-Key: (512 bit)
                pub:
                    04:19:51:61:d1:b8:dc:05:54:30:81:a5:2c:6c:45:
                    1b:0a:58:ed:86:7f:ad:f0:0d:c3:a1:fc:75:e5:dc:
                    a0:43:c1:f8:e1:b0:77:16:15:ff:19:cf:4f:a5:a9:
                    0a:34:56:1d:61:a3:4e:57:ef:0f:87:ab:23:27:2d:
                    8c:4e:5b:6d:0b:88:10:10:9d:8b:de:db:90:ee:9e:
                    d8:3d:5c:91:32:58:cf:c6:31:92:0d:b1:9b:1d:bf:
                    a6:fe:af:55:c8:4c:c2:c6:d9:16:64:4e:94:57:11:
                    99:c6:3c:84:b6:6d:51:0d:17:dc:fa:31:d4:eb:14:
                    ad:4d:7a:67:c3:cf:8a:83:76
                ASN1 OID: brainpoolP512r1
        X509v3 extensions:
            X509v3 Key Usage: critical
                Digital Signature, Key Encipherment, Key Agreement
            X509v3 Extended Key Usage: 
                TLS Web Server Authentication
            X509v3 Subject Key Identifier: 
                0F:EE:E9:74:43:23:BE:38:45:C1:2B:83:2E:14:AB:1F:23:67:8E:D4
            X509v3 Authority Key Identifier: 
                C0:5B:E5:4E:29:2C:DE:71:CE:46:8B:86:E2:6A:22:10:99:CD:D2:16
    Signature Algorithm: ecdsa-with-SHA256
    Signature Value:
        30:81:85:02:41:00:a6:5e:f8:c0:98:c4:26:54:1f:74:8e:18:
        e1:fa:6f:d1:c4:c1:56:57:bb:b8:08:6e:af:67:54:10:84:57:
        be:08:8a:da:a6:b6:34:cd:62:30:28:5d:69:e4:85:38:46:1a:
        06:7a:96:0b:63:6b:99:7b:7a:ce:68:bf:fc:63:70:b9:02:40:
        11:bc:b2:d2:52:f0:0e:a9:78:9c:c7:95:6e:0d:a5:95:99:29:
        94:40:02:9d:92:3a:47:46:aa:0b:f3:8d:23:9c:ae:42:38:7f:
        20:6c:8c:4c:d0:22:07:7a:8a:dc:5b:15:6e:8d:d4:fd:7d:7a:
        d7:8e:b8:6f:b6:3c:43:77:ec:9c
-----BEGIN CERTIFICATE-----
MIICBDCCAWigAwIBAgIBAjAKBggqhkjOPQQDAjAVMRMwEQYDVQQKDApFeGFtcGxl
IENBMB4XDTI0MTIyNDE0MjUxMVoXDTI1MTIyNDE0MjUxMVowFDESMBAGA1UEAwwJ
bG9jYWxob3N0MIGbMBQGByqGSM49AgEGCSskAwMCCAEBDQOBggAEGVFh0bjcBVQw
gaUsbEUbCljthn+t8A3Dofx15dygQ8H44bB3FhX/Gc9PpakKNFYdYaNOV+8Ph6sj
Jy2MTlttC4gQEJ2L3tuQ7p7YPVyRMljPxjGSDbGbHb+m/q9VyEzCxtkWZE6UVxGZ
xjyEtm1RDRfc+jHU6xStTXpnw8+Kg3ajZzBlMA4GA1UdDwEB/wQEAwIDqDATBgNV
HSUEDDAKBggrBgEFBQcDATAdBgNVHQ4EFgQUD+7pdEMjvjhFwSuDLhSrHyNnjtQw
HwYDVR0jBBgwFoAUwFvlTiks3nHORouG4moiEJnN0hYwCgYIKoZIzj0EAwIDgYkA
MIGFAkEApl74wJjEJlQfdI4Y4fpv0cTBVle7uAhur2dUEIRXvgiK2qa2NM1iMChd
aeSFOEYaBnqWC2NrmXt6zmi//GNwuQJAEbyy0lLwDql4nMeVbg2llZkplEACnZI6
R0aqC/ONI5yuQjh/IGyMTNAiB3qK3FsVbo3U/X161464b7Y8Q3fsnA==
-----END CERTIFICATE-----
