Certificate:
    Data:
        Version: 3 (0x2)
        Serial Number: 3 (0x3)
        Signature Algorithm: ecdsa-with-SHA256
        Issuer: O=Example CA
        Validity
            Not Before: Dec 24 14:25:11 2024 GMT
            Not After : Dec 24 14:25:11 2025 GMT
        Subject: CN=John Smith
        Subject Public Key Info:
            Public Key Algorithm: id-ecPublicKey
                Public-Key: (384 bit)
                pub:
                    04:8c:95:a5:22:15:ed:6f:3b:2a:6e:14:17:52:9f:
                    19:11:e2:cd:59:f0:f7:54:79:58:f0:13:36:ae:10:
                    99:30:91:d6:e8:3c:1b:ca:2a:02:91:f7:bf:31:f0:
                    74:7c:d1:cf:6d:0c:da:20:9c:fd:52:d2:03:f2:05:
                    a6:02:2c:a1:3a:34:ed:78:30:75:87:27:4d:4d:bd:
                    e5:b6:66:dc:5c:4a:ae:a0:3b:5a:c0:f6:db:e9:79:
                    09:b6:78:78:de:56:c3
                ASN1 OID: brainpoolP384r1
        X509v3 extensions:
            X509v3 Key Usage: 
                Digital Signature, Key Encipherment
            X509v3 Extended Key Usage: 
                TLS Web Client Authentication, E-mail Protection
            X509v3 Subject Key Identifier: 
                9F:3E:0B:BD:8F:4E:45:B0:59:23:4B:24:9E:3D:11:BD:F6:0E:2C:B1
            X509v3 Authority Key Identifier: 
                8A:98:2E:08:7A:22:9E:55:6D:04:77:25:28:2C:5A:E2:97:ED:1C:B8
    Signature Algorithm: ecdsa-with-SHA256
    Signature Value:
        30:64:02:30:2a:0c:06:29:9b:9c:da:3e:dd:af:cd:d5:2e:4c:
        a4:56:d3:cc:07:48:fe:98:e1:b8:63:a4:38:02:86:b7:e4:94:
        89:7e:ea:4b:ce:b2:fc:b6:54:fc:04:4e:dc:01:17:27:02:30:
        52:84:2e:97:ac:7a:f0:c1:66:89:84:c8:f3:2a:6d:b7:9b:e7:
        c0:08:4b:84:ef:6d:04:16:83:0b:2c:08:d0:c6:c8:b9:f2:63:
        05:f6:5f:91:1d:01:a6:98:8e:6b:33:78
-----BEGIN CERTIFICATE-----
MIIBxzCCAU6gAwIBAgIBAzAKBggqhkjOPQQDAjAVMRMwEQYDVQQKDApFeGFtcGxl
IENBMB4XDTI0MTIyNDE0MjUxMVoXDTI1MTIyNDE0MjUxMVowFTETMBEGA1UEAwwK
Sm9obiBTbWl0aDB6MBQGByqGSM49AgEGCSskAwMCCAEBCwNiAASMlaUiFe1vOypu
FBdSnxkR4s1Z8PdUeVjwEzauEJkwkdboPBvKKgKR978x8HR80c9tDNognP1S0gPy
BaYCLKE6NO14MHWHJ01NveW2ZtxcSq6gO1rA9tvpeQm2eHjeVsOjbjBsMAsGA1Ud
DwQEAwIFoDAdBgNVHSUEFjAUBggrBgEFBQcDAgYIKwYBBQUHAwQwHQYDVR0OBBYE
FJ8+C72PTkWwWSNLJJ49Eb32DiyxMB8GA1UdIwQYMBaAFIqYLgh6Ip5VbQR3JSgs
WuKX7Ry4MAoGCCqGSM49BAMCA2cAMGQCMCoMBimbnNo+3a/N1S5MpFbTzAdI/pjh
uGOkOAKGt+SUiX7qS86y/LZU/ARO3AEXJwIwUoQul6x68MFmiYTI8yptt5vnwAhL
hO9tBBaDCywI0MbIufJjBfZfkR0BppiOazN4
-----END CERTIFICATE-----
