Certificate:
    Data:
        Version: 3 (0x2)
        Serial Number: 3 (0x3)
        Signature Algorithm: ecdsa-with-SHA256
        Issuer: O=Example CA
        Validity
            Not Before: Dec 24 14:25:11 2024 GMT
            Not After : Dec 24 14:25:11 2025 GMT
        Subject: CN=John Smith
        Subject Public Key Info:
            Public Key Algorithm: id-ecPublicKey
                Public-Key: (256 bit)
                pub:
                    04:5e:7d:50:b5:d7:5a:56:f4:20:bc:7a:ec:d6:10:
                    d6:7d:c5:69:76:e5:dc:22:09:78:b6:2c:c2:e0:bb:
                    9c:da:6c:12:9c:22:77:38:f2:f9:d1:7a:39:a1:63:
                    b3:39:66:70:48:a3:29:e8:6d:87:10:d8:58:10:1f:
                    37:c5:79:67:34
                ASN1 OID: brainpoolP256r1
        X509v3 extensions:
            X509v3 Key Usage: 
                Digital Signature, Key Encipherment
            X509v3 Extended Key Usage: 
                TLS Web Client Authentication, E-mail Protection
            X509v3 Subject Key Identifier: 
                0C:E6:C1:29:67:4E:0A:7F:B4:7E:00:04:06:E8:F7:ED:6E:1C:14:CF
            X509v3 Authority Key Identifier: 
                97:9C:53:A3:8F:54:1A:1A:05:B5:D0:50:20:10:17:AF:E1:B7:63:9C
    Signature Algorithm: ecdsa-with-SHA256
    Signature Value:
        30:45:02:20:29:a5:af:10:28:a5:f9:f4:85:42:27:ac:90:d1:
        cf:73:a2:50:65:c6:21:ed:39:3f:7a:64:51:89:a1:ca:6b:e0:
        02:21:00:93:a0:5d:f0:33:b8:a1:1d:a9:c3:5a:c3:3c:e5:00:
        3b:f4:c7:45:c3:e4:07:ae:0c:35:95:16:94:85:b1:30:44
-----BEGIN CERTIFICATE-----
MIIBiDCCAS6gAwIBAgIBAzAKBggqhkjOPQQDAjAVMRMwEQYDVQQKDApFeGFtcGxl
IENBMB4XDTI0MTIyNDE0MjUxMVoXDTI1MTIyNDE0MjUxMVowFTETMBEGA1UEAwwK
Sm9obiBTbWl0aDBaMBQGByqGSM49AgEGCSskAwMCCAEBBwNCAARefVC111pW9CC8
euzWENZ9xWl25dwiCXi2LMLgu5zabBKcInc48vnRejmhY7M5ZnBIoynobYcQ2FgQ
HzfFeWc0o24wbDALBgNVHQ8EBAMCBaAwHQYDVR0lBBYwFAYIKwYBBQUHAwIGCCsG
AQUFBwMEMB0GA1UdDgQWBBQM5sEpZ04Kf7R+AAQG6PftbhwUzzAfBgNVHSMEGDAW
gBSXnFOjj1QaGgW10FAgEBev4bdjnDAKBggqhkjOPQQDAgNIADBFAiAppa8QKKX5
9IVCJ6yQ0c9zolBlxiHtOT96ZFGJocpr4AIhAJOgXfAzuKEdqcNawzzlADv0x0XD
5AeuDDWVFpSFsTBE
-----END CERTIFICATE-----
