Certificate:
    Data:
        Version: 3 (0x2)
        Serial Number: 3 (0x3)
        Signature Algorithm: ecdsa-with-SHA256
        Issuer: O=Example CA
        Validity
            Not Before: Dec 24 14:25:11 2024 GMT
            Not After : Dec 24 14:25:11 2025 GMT
        Subject: CN=John Smith
        Subject Public Key Info:
            Public Key Algorithm: id-ecPublicKey
                Public-Key: (512 bit)
                pub:
                    04:a8:c2:d6:0c:4a:34:2a:6b:4e:57:5d:10:12:f3:
                    96:73:aa:b3:f2:12:b9:5e:9d:68:6d:b6:80:fb:af:
                    91:b9:7d:bf:ab:b0:9b:02:c4:16:e2:51:d4:19:20:
                    7e:13:fe:4d:33:e6:33:98:57:f7:08:74:23:65:66:
                    f1:0e:28:ea:b9:20:0d:dc:91:6a:0d:c9:11:7a:74:
                    3a:f6:54:dc:54:5f:5b:1f:53:e6:78:21:f1:0e:06:
                    21:10:a0:03:b6:15:20:e7:cf:86:fe:21:f2:4d:1d:
                    db:aa:db:98:73:8f:90:32:69:49:52:9b:e0:10:c7:
                    69:6a:8a:68:0d:e9:fd:3a:2d
                ASN1 OID: brainpoolP512r1
        X509v3 extensions:
            X509v3 Key Usage: 
                Digital Signature, Key Encipherment
            X509v3 Extended Key Usage: 
                TLS Web Client Authentication, E-mail Protection
            X509v3 Subject Key Identifier: 
                30:C5:FE:EA:C8:E7:5B:89:BC:7D:64:0B:8D:0A:10:24:6C:0D:D6:B0
            X509v3 Authority Key Identifier: 
                C0:5B:E5:4E:29:2C:DE:71:CE:46:8B:86:E2:6A:22:10:99:CD:D2:16
    Signature Algorithm: ecdsa-with-SHA256
    Signature Value:
        30:81:84:02:40:74:e4:ca:47:d8:f5:a7:a4:d4:a2:4b:a6:d0:
        32:cc:00:22:42:a4:6f:54:c6:1d:fc:01:57:6b:fb:5d:c2:a1:
        03:ae:7a:1e:b4:31:bc:18:a7:a7:b6:0c:04:7a:e2:e6:97:af:
        43:32:85:cd:e1:eb:d9:74:15:c5:3f:fa:3c:8f:5f:02:40:1e:
        a2:44:f8:60:1b:2f:ee:35:70:97:70:77:76:4e:56:6d:6c:f6:
        1e:02:06:f4:90:1e:a5:03:0a:49:28:e0:a7:0c:aa:b7:a4:7d:
        3b:65:fd:2e:5b:6c:ec:aa:d9:f3:b7:05:76:da:20:49:c3:48:
        cc:ff:97:d0:9a:17:b9:1f:07
-----BEGIN CERTIFICATE-----
MIICCzCCAXCgAwIBAgIBAzAKBggqhkjOPQQDAjAVMRMwEQYDVQQKDApFeGFtcGxl
IENBMB4XDTI0MTIyNDE0MjUxMVoXDTI1MTIyNDE0MjUxMVowFTETMBEGA1UEAwwK
Sm9obiBTbWl0aDCBmzAUBgcqhkjOPQIBBgkrJAMDAggBAQ0DgYIABKjC1gxKNCpr
TlddEBLzlnOqs/ISuV6daG22gPuvkbl9v6uwmwLEFuJR1BkgfhP+TTPmM5hX9wh0
I2Vm8Q4o6rkgDdyRag3JEXp0OvZU3FRfWx9T5ngh8Q4GIRCgA7YVIOfPhv4h8k0d
26rbmHOPkDJpSVKb4BDHaWqKaA3p/Toto24wbDALBgNVHQ8EBAMCBaAwHQYDVR0l
BBYwFAYIKwYBBQUHAwIGCCsGAQUFBwMEMB0GA1UdDgQWBBQwxf7qyOdbibx9ZAuN
ChAkbA3WsDAfBgNVHSMEGDAWgBTAW+VOKSzecc5Gi4biaiIQmc3SFjAKBggqhkjO
PQQDAgOBiAAwgYQCQHTkykfY9aek1KJLptAyzAAiQqRvVMYd/AFXa/tdwqEDrnoe
tDG8GKentgwEeuLml69DMoXN4evZdBXFP/o8j18CQB6iRPhgGy/uNXCXcHd2TlZt
bPYeAgb0kB6lAwpJKOCnDKq3pH07Zf0uW2zsqtnztwV22iBJw0jM/5fQmhe5Hwc=
-----END CERTIFICATE-----
