Certificate:
    Data:
        Version: 3 (0x2)
        Serial Number: 2 (0x2)
        Signature Algorithm: ecdsa-with-SHA256
        Issuer: O=Example CA
        Validity
            Not Before: Dec 24 14:25:11 2024 GMT
            Not After : Dec 24 14:25:11 2025 GMT
        Subject: CN=localhost
        Subject Public Key Info:
            Public Key Algorithm: id-ecPublicKey
                Public-Key: (256 bit)
                pub:
                    04:77:87:16:bc:aa:c3:4b:4c:d9:e6:a2:e1:a7:3c:
                    ee:d1:7b:85:6e:a0:62:7a:29:bf:fa:6f:41:84:e0:
                    e3:08:fb:39:9f:7a:2e:cd:74:f5:fc:3f:5b:44:35:
                    10:82:a7:31:11:62:e9:37:57:46:71:2c:50:ee:d9:
                    27:6b:37:00:41
                ASN1 OID: brainpoolP256r1
        X509v3 extensions:
            X509v3 Key Usage: critical
                Digital Signature, Key Encipherment, Key Agreement
            X509v3 Extended Key Usage: 
                TLS Web Server Authentication
            X509v3 Subject Key Identifier: 
                AF:96:80:2E:59:0D:24:3C:4A:A4:58:0E:1C:82:5A:28:0F:A2:E8:72
            X509v3 Authority Key Identifier: 
                97:9C:53:A3:8F:54:1A:1A:05:B5:D0:50:20:10:17:AF:E1:B7:63:9C
    Signature Algorithm: ecdsa-with-SHA256
    Signature Value:
        30:45:02:21:00:8e:8a:4b:f9:39:9b:c5:2e:db:d8:78:4f:69:
        64:22:7b:b5:c2:65:43:2b:7d:3b:63:7e:ce:87:6d:b2:1f:64:
        57:02:20:06:e6:74:c0:25:a6:8b:4c:4f:56:da:6c:b6:8f:88:
        4c:7a:25:a4:c8:32:36:97:7b:73:21:f6:63:a8:05:fd:f2
-----BEGIN CERTIFICATE-----
MIIBgDCCASagAwIBAgIBAjAKBggqhkjOPQQDAjAVMRMwEQYDVQQKDApFeGFtcGxl
IENBMB4XDTI0MTIyNDE0MjUxMVoXDTI1MTIyNDE0MjUxMVowFDESMBAGA1UEAwwJ
bG9jYWxob3N0MFowFAYHKoZIzj0CAQYJKyQDAwIIAQEHA0IABHeHFryqw0tM2eai
4ac87tF7hW6gYnopv/pvQYTg4wj7OZ96Ls109fw/W0Q1EIKnMRFi6TdXRnEsUO7Z
J2s3AEGjZzBlMA4GA1UdDwEB/wQEAwIDqDATBgNVHSUEDDAKBggrBgEFBQcDATAd
BgNVHQ4EFgQUr5aALlkNJDxKpFgOHIJaKA+i6HIwHwYDVR0jBBgwFoAUl5xTo49U
GhoFtdBQIBAXr+G3Y5wwCgYIKoZIzj0EAwIDSAAwRQIhAI6KS/k5m8Uu29h4T2lk
Inu1wmVDK307Y37Oh22yH2RXAiAG5nTAJaaLTE9W2my2j4hMeiWkyDI2l3tzIfZj
qAX98g==
-----END CERTIFICATE-----
