Certificate:
    Data:
        Version: 3 (0x2)
        Serial Number: 1 (0x1)
        Signature Algorithm: ecdsa-with-SHA256
        Issuer: O=Example CA
        Validity
            Not Before: Dec 24 14:25:11 2019 GMT
            Not After : Dec 24 14:25:11 2034 GMT
        Subject: O=Example CA
        Subject Public Key Info:
            Public Key Algorithm: id-ecPublicKey
                Public-Key: (512 bit)
                pub:
                    04:01:00:f8:ca:d6:1b:35:18:77:64:69:e7:32:20:
                    be:c1:2c:77:b2:c6:de:c5:06:6f:e7:dd:17:79:5d:
                    25:e0:22:ed:ed:92:f1:44:dd:9f:9b:d8:34:c8:eb:
                    15:48:0e:bf:15:8e:1b:cf:50:46:31:d8:6d:90:7f:
                    94:15:10:d9:d1:22:d3:49:db:2e:67:ed:f7:8d:5b:
                    7e:b3:f6:2b:77:f5:4f:7b:9b:28:26:f5:bb:c5:cb:
                    b7:17:23:a2:99:76:25:ee:b3:71:9f:b5:e0:40:81:
                    7f:44:cf:e0:a1:1a:86:37:f1:0e:22:45:23:c9:fd:
                    db:61:da:ef:8e:47:29:6a:1b
                ASN1 OID: brainpoolP512r1
        X509v3 extensions:
            X509v3 Basic Constraints: critical
                CA:TRUE
            X509v3 Key Usage: critical
                Certificate Sign, CRL Sign
            X509v3 Subject Key Identifier: 
                C0:5B:E5:4E:29:2C:DE:71:CE:46:8B:86:E2:6A:22:10:99:CD:D2:16
            X509v3 Authority Key Identifier: 
                C0:5B:E5:4E:29:2C:DE:71:CE:46:8B:86:E2:6A:22:10:99:CD:D2:16
    Signature Algorithm: ecdsa-with-SHA256
    Signature Value:
        30:81:85:02:41:00:82:f8:4a:1f:26:1d:a6:f2:74:a3:57:1c:
        90:c8:38:f9:b7:67:6e:fd:bd:d7:01:36:4c:ce:3e:1e:59:b9:
        2c:e1:75:2f:c9:7a:8c:9b:52:d1:ac:a5:40:a4:e7:de:9a:83:
        da:a5:84:6a:03:dc:70:9e:d0:39:db:76:01:36:06:ea:02:40:
        08:73:26:15:bd:fe:4a:53:aa:51:3e:ad:6a:22:d2:db:9f:cc:
        f0:4b:27:42:33:ca:21:62:59:a1:83:87:6d:ed:a1:32:76:2e:
        9e:d2:29:61:c0:ae:03:02:37:8e:cb:31:2c:c3:3f:57:bc:26:
        18:d7:8e:da:13:fa:52:57:64:f9
-----BEGIN CERTIFICATE-----
MIICATCCAWWgAwIBAgIBATAKBggqhkjOPQQDAjAVMRMwEQYDVQQKDApFeGFtcGxl
IENBMB4XDTE5MTIyNDE0MjUxMVoXDTM0MTIyNDE0MjUxMVowFTETMBEGA1UECgwK
RXhhbXBsZSBDQTCBmzAUBgcqhkjOPQIBBgkrJAMDAggBAQ0DgYIABAEA+MrWGzUY
d2Rp5zIgvsEsd7LG3sUGb+fdF3ldJeAi7e2S8UTdn5vYNMjrFUgOvxWOG89QRjHY
bZB/lBUQ2dEi00nbLmft941bfrP2K3f1T3ubKCb1u8XLtxcjopl2Je6zcZ+14ECB
f0TP4KEahjfxDiJFI8n922Ha745HKWobo2MwYTAPBgNVHRMBAf8EBTADAQH/MA4G
A1UdDwEB/wQEAwIBBjAdBgNVHQ4EFgQUwFvlTiks3nHORouG4moiEJnN0hYwHwYD
VR0jBBgwFoAUwFvlTiks3nHORouG4moiEJnN0hYwCgYIKoZIzj0EAwIDgYkAMIGF
AkEAgvhKHyYdpvJ0o1cckMg4+bdnbv291wE2TM4+Hlm5LOF1L8l6jJtS0aylQKTn
3pqD2qWEagPccJ7QOdt2ATYG6gJACHMmFb3+SlOqUT6taiLS25/M8EsnQjPKIWJZ
oYOHbe2hMnYuntIpYcCuAwI3jssxLMM/V7wmGNeO2hP6Uldk+Q==
-----END CERTIFICATE-----
