Certificate:
    Data:
        Version: 3 (0x2)
        Serial Number: 3 (0x3)
        Signature Algorithm: dsa_with_SHA256
        Issuer: O=Example CA
        Validity
            Not Before: Dec 24 14:25:10 2024 GMT
            Not After : Dec 24 14:25:10 2025 GMT
        Subject: CN=John Smith
        Subject Public Key Info:
            Public Key Algorithm: dsaEncryption
                Public-Key: (2048 bit)
                pub: 
                    70:68:4f:4c:7e:62:02:f8:ac:dd:dc:f6:14:76:24:
                    45:bc:80:89:dc:e3:2d:4e:3b:c8:f3:40:1a:b1:0a:
                    90:d5:5e:fc:e0:19:b2:fd:51:67:e6:80:a3:cf:88:
                    15:b5:b9:39:9c:4a:2d:2f:6e:e4:6d:67:30:5e:4f:
                    89:a8:c8:4a:88:ad:10:f6:16:a3:72:61:2d:f4:b0:
                    aa:42:fa:ca:35:4d:65:60:4f:69:14:f9:e3:ea:ee:
                    ef:06:66:99:68:66:c7:a7:39:fb:90:21:99:50:1f:
                    62:63:67:4d:68:ed:ac:30:06:e7:5a:ef:7e:ab:21:
                    01:27:f6:42:0b:13:43:e9:9f:8c:9e:e2:4d:0e:6b:
                    42:1a:98:30:b7:0c:b8:f0:7c:6d:22:46:44:be:95:
                    f6:03:e9:71:a0:9b:09:fd:e8:29:92:d8:d2:da:05:
                    78:58:c4:cb:2f:30:22:6c:7a:e5:e8:b4:21:9a:4b:
                    1d:9e:82:ba:8f:0b:46:ca:3e:13:aa:d5:a9:34:29:
                    c0:7e:4f:33:d6:6d:85:f1:86:17:90:61:f6:97:44:
                    ed:49:d3:d9:2f:bf:09:4d:ec:c3:b6:ac:15:67:18:
                    dd:35:2e:dc:e5:8b:59:f8:f6:81:32:7c:ac:94:45:
                    18:12:bf:45:c2:df:ce:a3:45:e0:64:8e:8b:b6:13:
                    62
                P:   
                    00:a8:86:ff:f1:78:53:4f:d3:41:a1:35:84:e0:0a:
                    37:9d:15:15:cf:de:a8:2f:47:a4:a6:ad:05:94:89:
                    2a:cf:c2:38:36:53:3e:6a:de:38:1f:4b:bf:2b:c4:
                    8e:07:e4:95:5f:01:43:d5:a6:ad:02:63:08:b4:15:
                    89:15:3f:1b:8d:44:cd:eb:3a:e4:e5:dd:35:20:bd:
                    7e:07:d1:ca:3b:42:a3:5b:31:3c:e3:88:75:dd:f5:
                    ba:eb:78:21:b5:ef:b8:6e:f7:02:97:8e:b9:c5:eb:
                    79:15:c0:af:61:28:36:0f:e6:b0:15:66:af:45:45:
                    6b:13:0d:ef:21:2c:74:bf:f3:f0:52:cb:3e:b5:e2:
                    2e:d7:96:e3:9b:f0:fa:a3:88:4a:b1:1d:11:a9:f1:
                    2b:19:3c:2b:ee:ba:b8:9c:51:45:16:9e:e2:07:02:
                    60:15:df:bf:4c:e2:6e:0a:06:0e:ac:e7:8c:73:b5:
                    39:f6:44:37:36:ef:de:26:d9:e1:16:25:80:fa:c4:
                    c4:a9:f9:dc:29:ed:ec:f8:5f:28:8c:83:0b:9b:64:
                    eb:27:fa:3b:f6:8a:bf:e9:54:fe:31:dd:d7:ab:71:
                    5a:a3:db:f5:d2:d6:ab:02:a2:1f:82:d6:66:07:f5:
                    5b:58:50:2a:4a:e9:b6:62:6f:fd:07:1f:36:14:f1:
                    23:6b
                Q:   
                    00:a1:0d:d5:28:5a:2b:24:30:5a:55:f7:57:27:f7:
                    33:5d:dd:86:e8:ef:4d:ab:13:bb:81:c8:45:43
                G:   
                    00:9c:15:0b:66:08:0a:ed:e2:10:53:79:51:c1:e8:
                    85:f5:0d:70:e6:e9:11:de:bd:21:ac:19:6d:e1:c8:
                    77:50:83:b2:57:35:98:8d:c0:c7:51:3f:ea:92:3d:
                    09:b2:87:b4:2b:1c:f5:9b:81:25:59:dc:d6:dc:fd:
                    40:8c:42:4c:4e:26:0d:99:04:ff:fc:f2:ce:ab:cd:
                    bf:45:3c:0a:e2:be:28:9f:d0:0b:4f:cb:d0:4a:25:
                    cf:bd:32:fc:b0:f5:d3:02:1e:25:0e:de:df:98:d5:
                    22:0b:11:9a:6f:c9:34:71:97:d0:83:3a:24:33:97:
                    32:22:57:27:9c:a5:bd:57:9b:4c:1c:b2:e9:f5:36:
                    8e:7d:10:4a:4b:72:27:6e:95:2a:1c:89:62:7d:cc:
                    10:b0:ea:cd:d7:7c:28:30:33:89:8b:63:17:29:db:
                    d2:9a:1f:0f:78:be:f9:cb:8b:6b:25:5d:f6:2c:dc:
                    8b:0b:c8:8b:71:22:0a:3b:aa:78:d5:f6:87:71:9b:
                    31:82:58:ca:52:dd:79:45:ef:eb:d0:59:c4:8d:01:
                    bb:db:1f:66:1d:5b:de:46:32:20:8d:a8:1b:0f:30:
                    71:1c:41:f5:12:f3:50:5c:64:9d:81:19:ea:70:70:
                    b1:99:70:61:96:a8:25:63:0a:eb:e8:03:87:65:73:
                    49:e0
        X509v3 extensions:
            X509v3 Key Usage: 
                Digital Signature, Key Encipherment
            X509v3 Extended Key Usage: 
                TLS Web Client Authentication, E-mail Protection
            X509v3 Subject Key Identifier: 
                2D:BC:CC:87:7B:69:B6:54:04:29:F2:86:2D:0F:F0:01:D8:B7:2D:6F
            X509v3 Authority Key Identifier: 
                90:B4:54:34:C6:2A:3C:F3:80:DD:9C:F0:25:A0:43:1F:43:90:CF:A2
    Signature Algorithm: dsa_with_SHA256
    Signature Value:
        r:   
            00:a3:c5:df:86:45:4d:16:31:46:82:1e:2a:56:fa:
            9a:87:7b:3d:fc:26:67:5c:71:7b:2f:ed:d1:a3
        s:   
            3f:4a:8d:09:84:72:cc:a0:95:6e:41:20:55:40:d8:
            9a:0d:a8:73:1c:fe:03:42:3c:ab:6f:0f:cd
-----BEGIN CERTIFICATE-----
MIIEbTCCBBqgAwIBAgIBAzALBglghkgBZQMEAwIwFTETMBEGA1UECgwKRXhhbXBs
ZSBDQTAeFw0yNDEyMjQxNDI1MTBaFw0yNTEyMjQxNDI1MTBaMBUxEzARBgNVBAMM
CkpvaG4gU21pdGgwggNDMIICNgYHKoZIzjgEATCCAikCggEBAKiG//F4U0/TQaE1
hOAKN50VFc/eqC9HpKatBZSJKs/CODZTPmreOB9LvyvEjgfklV8BQ9WmrQJjCLQV
iRU/G41Ezes65OXdNSC9fgfRyjtCo1sxPOOIdd31uut4IbXvuG73ApeOucXreRXA
r2EoNg/msBVmr0VFaxMN7yEsdL/z8FLLPrXiLteW45vw+qOISrEdEanxKxk8K+66
uJxRRRae4gcCYBXfv0zibgoGDqznjHO1OfZENzbv3ibZ4RYlgPrExKn53Cnt7Phf
KIyDC5tk6yf6O/aKv+lU/jHd16txWqPb9dLWqwKiH4LWZgf1W1hQKkrptmJv/Qcf
NhTxI2sCHQChDdUoWiskMFpV91cn9zNd3Ybo702rE7uByEVDAoIBAQCcFQtmCArt
4hBTeVHB6IX1DXDm6RHevSGsGW3hyHdQg7JXNZiNwMdRP+qSPQmyh7QrHPWbgSVZ
3Nbc/UCMQkxOJg2ZBP/88s6rzb9FPAriviif0AtPy9BKJc+9Mvyw9dMCHiUO3t+Y
1SILEZpvyTRxl9CDOiQzlzIiVyecpb1Xm0wcsun1No59EEpLcidulSociWJ9zBCw
6s3XfCgwM4mLYxcp29KaHw94vvnLi2slXfYs3IsLyItxIgo7qnjV9odxmzGCWMpS
3XlF7+vQWcSNAbvbH2YdW95GMiCNqBsPMHEcQfUS81BcZJ2BGepwcLGZcGGWqCVj
CuvoA4dlc0ngA4IBBQACggEAcGhPTH5iAvis3dz2FHYkRbyAidzjLU47yPNAGrEK
kNVe/OAZsv1RZ+aAo8+IFbW5OZxKLS9u5G1nMF5PiajISoitEPYWo3JhLfSwqkL6
yjVNZWBPaRT54+ru7wZmmWhmx6c5+5AhmVAfYmNnTWjtrDAG51rvfqshASf2QgsT
Q+mfjJ7iTQ5rQhqYMLcMuPB8bSJGRL6V9gPpcaCbCf3oKZLY0toFeFjEyy8wImx6
5ei0IZpLHZ6Cuo8LRso+E6rVqTQpwH5PM9ZthfGGF5Bh9pdE7UnT2S+/CU3sw7as
FWcY3TUu3OWLWfj2gTJ8rJRFGBK/RcLfzqNF4GSOi7YTYqNuMGwwCwYDVR0PBAQD
AgWgMB0GA1UdJQQWMBQGCCsGAQUFBwMCBggrBgEFBQcDBDAdBgNVHQ4EFgQULbzM
h3tptlQEKfKGLQ/wAdi3LW8wHwYDVR0jBBgwFoAUkLRUNMYqPPOA3ZzwJaBDH0OQ
z6IwCwYJYIZIAWUDBAMCA0AAMD0CHQCjxd+GRU0WMUaCHipW+pqHez38JmdccXsv
7dGjAhw/So0JhHLMoJVuQSBVQNiaDahzHP4DQjyrbw/N
-----END CERTIFICATE-----
