Certificate:
    Data:
        Version: 3 (0x2)
        Serial Number: 2 (0x2)
        Signature Algorithm: dsa_with_SHA256
        Issuer: O=Example CA
        Validity
            Not Before: Dec 24 14:25:10 2024 GMT
            Not After : Dec 24 14:25:10 2025 GMT
        Subject: CN=localhost
        Subject Public Key Info:
            Public Key Algorithm: dsaEncryption
                Public-Key: (2048 bit)
                pub: 
                    63:29:fa:40:9c:58:7a:63:de:e4:eb:80:25:f6:0d:
                    7e:03:f9:d3:9f:24:f7:05:b0:cf:19:2d:f2:69:8a:
                    4f:ac:eb:5c:6d:f3:72:3e:6d:ef:0d:cc:fc:4e:f4:
                    26:ca:6b:34:5c:ed:91:42:6b:76:d4:f4:6f:b1:23:
                    ea:b9:2f:7a:0e:ca:ed:85:70:01:4d:eb:2e:d6:0f:
                    91:89:31:8d:a8:8c:f9:5e:88:10:72:f5:ba:0b:fc:
                    c9:52:95:47:63:3f:95:f3:a9:bf:b5:52:a3:d5:c4:
                    4d:b0:5c:5b:a2:90:53:6b:0d:a0:6f:cb:2a:74:ec:
                    0e:0d:bb:de:df:fc:a2:69:b1:22:f4:bf:92:13:e9:
                    b0:a2:a1:cf:ae:a5:6e:e4:07:48:7e:6b:31:7f:f3:
                    7c:e5:24:31:5e:2a:ec:21:db:4a:18:c0:89:75:08:
                    5f:d6:e8:78:21:0d:0c:22:93:d3:d6:2f:5d:95:3f:
                    b8:6d:c5:e6:90:e1:4b:ce:50:e3:7a:a6:e9:60:7d:
                    d5:a6:b7:97:6a:a6:73:ef:5a:b1:71:39:ab:0b:3d:
                    9b:46:4b:de:0c:cb:13:6e:3d:fa:64:61:0c:11:59:
                    15:ea:6e:31:ee:79:cd:ba:ce:26:16:32:89:b4:74:
                    09:7b:e6:dc:ab:47:48:8c:1d:d2:07:26:9b:4e:29:
                    da
                P:   
                    00:e5:89:72:f1:f2:44:8b:aa:3e:c1:04:a3:64:ef:
                    85:b6:0b:58:7f:70:d9:2f:db:07:53:03:b2:24:63:
                    d0:2c:04:c7:c5:43:93:e4:e4:33:27:37:3e:35:09:
                    80:8b:f3:9c:f3:28:52:6d:54:ef:77:52:d3:39:e7:
                    0b:49:4e:7e:16:4c:40:af:54:f6:6e:c6:d2:9b:01:
                    76:13:1d:a2:ad:e5:be:be:1c:0d:0d:8b:b0:46:f7:
                    c8:08:b7:44:e6:60:a1:a7:18:b5:0d:69:b4:d6:18:
                    6e:7f:69:83:6a:20:ef:88:b3:ad:4e:e3:05:97:84:
                    a7:84:d9:87:bd:93:4b:59:c4:4f:f5:13:1f:09:9b:
                    7f:ea:f9:83:09:d2:26:6d:e5:41:cf:ea:07:1f:03:
                    51:50:7f:14:c1:c2:57:8f:69:33:a5:a2:fc:55:f2:
                    d9:79:26:62:7c:1d:ca:a9:00:d8:da:c3:1c:ca:8a:
                    3c:66:6a:23:44:9f:29:29:6e:6e:ae:08:84:8d:9f:
                    be:8e:89:81:08:bd:9c:b9:ae:8c:2c:37:60:dd:d9:
                    80:8b:9f:92:f7:1a:bb:c7:77:95:35:55:9a:95:b6:
                    62:57:08:9a:04:ad:8e:33:ae:82:54:42:99:1e:c9:
                    3c:dd:c2:7a:c3:f0:57:ce:89:b0:31:25:58:b8:dc:
                    63:bf
                Q:   
                    00:d5:a7:bd:35:5b:38:f3:75:59:f5:6a:18:b1:95:
                    76:cf:a1:d0:83:66:a9:e0:fa:84:be:77:d5:2b
                G:   
                    2a:cd:79:ac:bd:7e:b3:8e:d2:4e:1d:75:bc:88:0f:
                    9d:16:88:ea:75:c2:77:9c:c7:f3:4d:73:35:a5:f3:
                    a8:73:b6:f8:b4:de:61:7f:25:84:ea:85:cf:25:24:
                    c0:0e:b0:25:09:33:b8:c9:39:40:15:1a:69:48:92:
                    f8:b8:a1:5d:d8:ea:57:ba:ec:ac:8b:e1:a0:54:45:
                    8a:87:87:ef:08:7b:61:02:c8:1a:ce:97:fb:08:86:
                    f2:49:ec:c3:e4:90:42:8b:9d:d6:b8:6b:e9:6f:a6:
                    fb:65:aa:91:28:d0:48:7b:43:f7:52:a7:aa:f4:d9:
                    4c:0d:ac:41:bd:10:59:d9:1e:ed:2b:c9:d7:6a:85:
                    7f:30:1c:c2:67:ba:e9:b8:e2:21:7c:ee:db:39:dd:
                    7b:d7:86:ba:3f:78:6f:52:93:5d:95:1d:3c:a8:83:
                    f3:53:f7:d4:8a:75:c2:5c:81:64:63:ec:b1:07:5b:
                    2d:19:a5:19:ed:fd:96:1c:96:13:0a:63:19:88:b1:
                    b8:dc:dd:87:d1:fa:ff:82:95:d2:33:3f:df:0c:e5:
                    80:f7:7f:81:21:0b:d9:04:83:aa:49:e4:5b:18:c7:
                    7c:0b:e5:8b:1f:cb:a3:4f:fe:a2:62:cf:24:4b:43:
                    b0:74:39:86:df:af:2c:01:9b:5a:60:14:12:f9:76:
                    75
        X509v3 extensions:
            X509v3 Key Usage: critical
                Digital Signature, Key Encipherment, Key Agreement
            X509v3 Extended Key Usage: 
                TLS Web Server Authentication
            X509v3 Subject Key Identifier: 
                92:98:28:86:91:63:F3:0B:EB:AD:B8:A4:85:EF:02:40:76:1F:42:0A
            X509v3 Authority Key Identifier: 
                90:B4:54:34:C6:2A:3C:F3:80:DD:9C:F0:25:A0:43:1F:43:90:CF:A2
    Signature Algorithm: dsa_with_SHA256
    Signature Value:
        r:   
            00:d1:4d:76:cb:37:31:60:78:db:39:24:f2:5f:1b:
            ba:4a:97:f4:82:eb:a8:4c:50:f5:be:71:15:0d
        s:   
            00:80:75:fc:ea:c2:80:73:30:a3:d3:83:cd:a5:90:
            98:de:2e:a3:a2:ff:b7:7f:da:63:bc:61:9b:c3
-----BEGIN CERTIFICATE-----
MIIEZTCCBBGgAwIBAgIBAjALBglghkgBZQMEAwIwFTETMBEGA1UECgwKRXhhbXBs
ZSBDQTAeFw0yNDEyMjQxNDI1MTBaFw0yNTEyMjQxNDI1MTBaMBQxEjAQBgNVBAMM
CWxvY2FsaG9zdDCCA0IwggI1BgcqhkjOOAQBMIICKAKCAQEA5Yly8fJEi6o+wQSj
ZO+FtgtYf3DZL9sHUwOyJGPQLATHxUOT5OQzJzc+NQmAi/Oc8yhSbVTvd1LTOecL
SU5+FkxAr1T2bsbSmwF2Ex2ireW+vhwNDYuwRvfICLdE5mChpxi1DWm01hhuf2mD
aiDviLOtTuMFl4SnhNmHvZNLWcRP9RMfCZt/6vmDCdImbeVBz+oHHwNRUH8UwcJX
j2kzpaL8VfLZeSZifB3KqQDY2sMcyoo8ZmojRJ8pKW5urgiEjZ++jomBCL2cua6M
LDdg3dmAi5+S9xq7x3eVNVWalbZiVwiaBK2OM66CVEKZHsk83cJ6w/BXzomwMSVY
uNxjvwIdANWnvTVbOPN1WfVqGLGVds+h0INmqeD6hL531SsCggEAKs15rL1+s47S
Th11vIgPnRaI6nXCd5zH801zNaXzqHO2+LTeYX8lhOqFzyUkwA6wJQkzuMk5QBUa
aUiS+LihXdjqV7rsrIvhoFRFioeH7wh7YQLIGs6X+wiG8knsw+SQQoud1rhr6W+m
+2WqkSjQSHtD91KnqvTZTA2sQb0QWdke7SvJ12qFfzAcwme66bjiIXzu2znde9eG
uj94b1KTXZUdPKiD81P31Ip1wlyBZGPssQdbLRmlGe39lhyWEwpjGYixuNzdh9H6
/4KV0jM/3wzlgPd/gSEL2QSDqknkWxjHfAvlix/Lo0/+omLPJEtDsHQ5ht+vLAGb
WmAUEvl2dQOCAQUAAoIBAGMp+kCcWHpj3uTrgCX2DX4D+dOfJPcFsM8ZLfJpik+s
61xt83I+be8NzPxO9CbKazRc7ZFCa3bU9G+xI+q5L3oOyu2FcAFN6y7WD5GJMY2o
jPleiBBy9boL/MlSlUdjP5Xzqb+1UqPVxE2wXFuikFNrDaBvyyp07A4Nu97f/KJp
sSL0v5IT6bCioc+upW7kB0h+azF/83zlJDFeKuwh20oYwIl1CF/W6HghDQwik9PW
L12VP7htxeaQ4UvOUON6pulgfdWmt5dqpnPvWrFxOasLPZtGS94MyxNuPfpkYQwR
WRXqbjHuec26ziYWMom0dAl75tyrR0iMHdIHJptOKdqjZzBlMA4GA1UdDwEB/wQE
AwIDqDATBgNVHSUEDDAKBggrBgEFBQcDATAdBgNVHQ4EFgQUkpgohpFj8wvrrbik
he8CQHYfQgowHwYDVR0jBBgwFoAUkLRUNMYqPPOA3ZzwJaBDH0OQz6IwCwYJYIZI
AWUDBAMCA0EAMD4CHQDRTXbLNzFgeNs5JPJfG7pKl/SC66hMUPW+cRUNAh0AgHX8
6sKAczCj04PNpZCY3i6jov+3f9pjvGGbww==
-----END CERTIFICATE-----
