Certificate:
    Data:
        Version: 3 (0x2)
        Serial Number: 1 (0x1)
        Signature Algorithm: dsa_with_SHA256
        Issuer: O=Example CA
        Validity
            Not Before: Dec 24 14:25:10 2019 GMT
            Not After : Dec 24 14:25:10 2034 GMT
        Subject: O=Example CA
        Subject Public Key Info:
            Public Key Algorithm: dsaEncryption
                Public-Key: (2048 bit)
                pub: 
                    00:a2:bd:b9:4a:a6:dc:12:c0:31:e2:ff:24:e1:34:
                    9d:63:64:06:fa:10:21:91:f6:4a:29:dd:57:a8:19:
                    52:00:1e:3d:70:51:97:35:62:a9:fa:8d:1e:39:fc:
                    65:b2:5d:ad:2f:e7:46:7f:b9:ca:9e:43:07:ff:e8:
                    4c:86:3f:27:f0:ff:5a:e8:3a:c9:a5:15:06:41:d7:
                    55:8a:08:c3:2f:1e:d9:77:e2:9e:f8:be:be:db:ab:
                    ef:7f:64:de:c2:c1:37:49:e4:25:6a:fe:ac:e1:f2:
                    16:dd:7c:43:ea:e4:8c:b4:0e:ba:87:70:0a:44:9c:
                    27:a1:f9:f2:dd:64:71:b2:4a:b9:aa:ce:46:45:da:
                    c8:cb:4c:3b:20:4a:ac:e0:7d:b5:f7:d6:f9:15:bf:
                    76:2b:c6:ba:fc:57:8d:cd:ea:b1:b9:ff:6e:c5:3a:
                    a6:b2:7a:f3:fe:a4:bb:2a:d2:ca:4b:bd:e7:13:77:
                    3e:5d:7f:83:59:29:c9:ba:50:1f:b3:bc:a1:b3:d3:
                    4e:f8:c7:11:e4:c0:47:d0:85:59:e2:48:62:b9:ae:
                    be:a1:f4:92:db:85:52:d8:b9:bf:01:21:38:f5:aa:
                    da:a3:39:03:0c:4c:ec:6a:04:11:07:9a:aa:e0:8b:
                    2d:7c:6e:67:87:dd:31:29:c8:78:64:01:9c:00:a6:
                    f5:c9
                P:   
                    00:a3:2e:71:4a:ef:6d:6b:0e:2b:bb:43:f5:da:ce:
                    f8:2b:dd:b1:84:68:59:06:1a:66:73:ce:de:d6:f1:
                    87:5d:79:9b:bf:37:9c:c1:0a:9f:02:80:2e:50:99:
                    99:56:d5:8f:7b:bb:65:cf:34:78:ed:c7:94:19:c2:
                    bd:2b:f3:64:62:6c:1a:bf:15:8a:74:a3:07:66:3f:
                    52:9e:88:56:0e:9c:66:6f:ae:c1:95:59:bf:b1:1f:
                    a1:8c:3f:1f:2b:83:04:6b:fc:e2:59:c5:99:41:da:
                    6d:db:ca:4b:a8:90:2d:05:07:c2:d5:bf:0a:ee:f2:
                    3f:e1:e5:c8:43:6f:33:0a:ba:5c:08:87:24:46:2d:
                    b8:08:4e:08:8e:a0:11:b2:d8:1d:f1:6e:18:d7:01:
                    db:e6:74:70:16:c4:94:f6:b5:88:8d:19:33:ab:2e:
                    77:52:9c:e3:33:30:92:31:68:17:4f:32:f9:3c:c9:
                    bc:39:f6:7a:cd:33:25:c6:d9:94:28:e9:ed:c5:e0:
                    52:2c:1e:ee:52:db:45:0f:b1:bd:f0:71:2b:27:77:
                    f9:39:d7:a9:d1:f8:40:d3:62:72:e9:2b:59:15:57:
                    8c:32:e9:41:e8:71:dd:d6:5f:1f:8f:ad:bf:b5:22:
                    0b:2f:94:75:f4:e4:46:02:e8:4e:37:96:38:00:6b:
                    9b:c3
                Q:   
                    00:ee:69:fb:b7:23:96:7c:86:95:5a:ef:ab:4d:e9:
                    ee:15:88:69:8d:8c:68:09:76:04:6c:c8:15:b7
                G:   
                    6f:29:5c:21:ce:a8:5b:c5:63:b2:62:54:1c:cb:9c:
                    2e:5a:ab:3e:85:79:2b:52:6f:21:c4:24:e0:27:56:
                    02:45:42:ab:ed:36:d0:73:08:3d:73:5f:af:3c:8d:
                    c7:da:1e:78:46:6b:7f:53:92:c2:87:10:d5:d6:72:
                    30:bb:93:ca:1e:d4:d7:e1:0f:97:bb:2f:97:42:82:
                    66:08:1a:a7:ed:1c:1a:f7:11:49:1d:c6:40:e4:ac:
                    2a:8f:ad:b3:fb:1a:8f:00:a8:fd:33:88:24:1a:0e:
                    d1:b2:2c:60:d9:0c:44:90:1d:ee:86:a2:15:1b:19:
                    45:36:24:53:89:14:bd:8e:52:b0:15:48:7f:d3:dc:
                    67:d3:24:59:30:c3:b1:96:8a:2e:79:ef:04:b8:e1:
                    4f:b7:6e:a2:60:6a:75:fd:69:53:77:07:d1:95:70:
                    a6:f9:b0:a1:e7:0a:a6:ce:a1:5d:05:ab:5e:9c:47:
                    d2:73:f6:03:1a:47:56:21:d9:65:9e:fa:16:e5:31:
                    b3:48:fa:ca:bb:4a:1e:0c:30:23:1b:03:c1:5d:5b:
                    34:90:65:85:07:5e:8f:c4:2f:60:51:7d:56:31:08:
                    03:38:ef:f7:80:25:0b:28:5f:92:a1:94:1c:5f:14:
                    f7:33:de:4f:ed:b4:27:eb:cd:07:e1:3e:c5:36:d1:
                    85
        X509v3 extensions:
            X509v3 Basic Constraints: critical
                CA:TRUE
            X509v3 Key Usage: critical
                Certificate Sign, CRL Sign
            X509v3 Subject Key Identifier: 
                90:B4:54:34:C6:2A:3C:F3:80:DD:9C:F0:25:A0:43:1F:43:90:CF:A2
            X509v3 Authority Key Identifier: 
                90:B4:54:34:C6:2A:3C:F3:80:DD:9C:F0:25:A0:43:1F:43:90:CF:A2
    Signature Algorithm: dsa_with_SHA256
    Signature Value:
        r:   
            11:fa:26:00:64:7c:05:41:64:2e:5a:42:f9:f9:44:
            15:af:ef:31:ea:6e:48:e1:df:bf:fc:6e:3d
        s:   
            6b:ba:02:6e:06:61:6b:cd:e5:df:60:69:40:cb:48:
            2f:50:39:2b:6e:f9:fb:5e:3c:e1:94:ca:ef
-----BEGIN CERTIFICATE-----
MIIEYTCCBA+gAwIBAgIBATALBglghkgBZQMEAwIwFTETMBEGA1UECgwKRXhhbXBs
ZSBDQTAeFw0xOTEyMjQxNDI1MTBaFw0zNDEyMjQxNDI1MTBaMBUxEzARBgNVBAoM
CkV4YW1wbGUgQ0EwggNDMIICNQYHKoZIzjgEATCCAigCggEBAKMucUrvbWsOK7tD
9drO+CvdsYRoWQYaZnPO3tbxh115m783nMEKnwKALlCZmVbVj3u7Zc80eO3HlBnC
vSvzZGJsGr8VinSjB2Y/Up6IVg6cZm+uwZVZv7EfoYw/HyuDBGv84lnFmUHabdvK
S6iQLQUHwtW/Cu7yP+HlyENvMwq6XAiHJEYtuAhOCI6gEbLYHfFuGNcB2+Z0cBbE
lPa1iI0ZM6sud1Kc4zMwkjFoF08y+TzJvDn2es0zJcbZlCjp7cXgUiwe7lLbRQ+x
vfBxKyd3+TnXqdH4QNNicukrWRVXjDLpQehx3dZfH4+tv7UiCy+UdfTkRgLoTjeW
OABrm8MCHQDuafu3I5Z8hpVa76tN6e4ViGmNjGgJdgRsyBW3AoIBAG8pXCHOqFvF
Y7JiVBzLnC5aqz6FeStSbyHEJOAnVgJFQqvtNtBzCD1zX688jcfaHnhGa39TksKH
ENXWcjC7k8oe1NfhD5e7L5dCgmYIGqftHBr3EUkdxkDkrCqPrbP7Go8AqP0ziCQa
DtGyLGDZDESQHe6GohUbGUU2JFOJFL2OUrAVSH/T3GfTJFkww7GWii557wS44U+3
bqJganX9aVN3B9GVcKb5sKHnCqbOoV0Fq16cR9Jz9gMaR1Yh2WWe+hblMbNI+sq7
Sh4MMCMbA8FdWzSQZYUHXo/EL2BRfVYxCAM47/eAJQsoX5KhlBxfFPcz3k/ttCfr
zQfhPsU20YUDggEGAAKCAQEAor25SqbcEsAx4v8k4TSdY2QG+hAhkfZKKd1XqBlS
AB49cFGXNWKp+o0eOfxlsl2tL+dGf7nKnkMH/+hMhj8n8P9a6DrJpRUGQddVigjD
Lx7Zd+Ke+L6+26vvf2TewsE3SeQlav6s4fIW3XxD6uSMtA66h3AKRJwnofny3WRx
skq5qs5GRdrIy0w7IEqs4H2199b5Fb92K8a6/FeNzeqxuf9uxTqmsnrz/qS7KtLK
S73nE3c+XX+DWSnJulAfs7yhs9NO+McR5MBH0IVZ4khiua6+ofSS24VS2Lm/ASE4
9araozkDDEzsagQRB5qq4IstfG5nh90xKch4ZAGcAKb1yaNjMGEwDwYDVR0TAQH/
BAUwAwEB/zAOBgNVHQ8BAf8EBAMCAQYwHQYDVR0OBBYEFJC0VDTGKjzzgN2c8CWg
Qx9DkM+iMB8GA1UdIwQYMBaAFJC0VDTGKjzzgN2c8CWgQx9DkM+iMAsGCWCGSAFl
AwQDAgM/ADA8AhwR+iYAZHwFQWQuWkL5+UQVr+8x6m5I4d+//G49AhxrugJuBmFr
zeXfYGlAy0gvUDkrbvn7XjzhlMrv
-----END CERTIFICATE-----
