Certificate:
    Data:
        Version: 3 (0x2)
        Serial Number: 1 (0x1)
        Signature Algorithm: ED25519
        Issuer: O=Example CA
        Validity
            Not Before: Dec 24 14:25:09 2019 GMT
            Not After : Dec 24 14:25:09 2034 GMT
        Subject: O=Example CA
        Subject Public Key Info:
            Public Key Algorithm: ED25519
                ED25519 Public-Key:
                pub:
                    fc:b9:c3:84:6a:df:ea:32:59:e0:93:b0:d2:bc:b4:
                    c0:a2:bf:4a:21:41:5b:42:fe:61:e1:48:1c:db:1b:
                    9f:19
        X509v3 extensions:
            X509v3 Basic Constraints: critical
                CA:TRUE
            X509v3 Key Usage: critical
                Certificate Sign, CRL Sign
            X509v3 Subject Key Identifier: 
                7B:52:A6:53:A9:4B:36:80:20:60:59:E5:CC:CA:4C:33:3D:16:CB:9B
            X509v3 Authority Key Identifier: 
                7B:52:A6:53:A9:4B:36:80:20:60:59:E5:CC:CA:4C:33:3D:16:CB:9B
    Signature Algorithm: ED25519
    Signature Value:
        25:ce:68:58:f6:72:6f:e0:20:40:f5:6f:ee:5a:1e:bf:3d:10:
        6e:27:eb:60:84:bb:57:0b:3f:7b:16:e0:c5:12:a1:11:56:87:
        c6:a4:48:0c:87:07:d4:e0:ff:08:b9:83:a2:59:b6:a3:4a:cd:
        b4:a9:d5:66:f4:f2:bc:9a:da:04
-----BEGIN CERTIFICATE-----
MIIBOzCB7qADAgECAgEBMAUGAytlcDAVMRMwEQYDVQQKDApFeGFtcGxlIENBMB4X
DTE5MTIyNDE0MjUwOVoXDTM0MTIyNDE0MjUwOVowFTETMBEGA1UECgwKRXhhbXBs
ZSBDQTAqMAUGAytlcAMhAPy5w4Rq3+oyWeCTsNK8tMCiv0ohQVtC/mHhSBzbG58Z
o2MwYTAPBgNVHRMBAf8EBTADAQH/MA4GA1UdDwEB/wQEAwIBBjAdBgNVHQ4EFgQU
e1KmU6lLNoAgYFnlzMpMMz0Wy5swHwYDVR0jBBgwFoAUe1KmU6lLNoAgYFnlzMpM
Mz0Wy5swBQYDK2VwA0EAJc5oWPZyb+AgQPVv7loevz0QbifrYIS7Vws/exbgxRKh
EVaHxqRIDIcH1OD/CLmDolm2o0rNtKnVZvTyvJraBA==
-----END CERTIFICATE-----
