Certificate:
    Data:
        Version: 3 (0x2)
        Serial Number: 2 (0x2)
        Signature Algorithm: ED25519
        Issuer: O=Example CA
        Validity
            Not Before: Dec 24 14:25:09 2024 GMT
            Not After : Dec 24 14:25:09 2025 GMT
        Subject: CN=localhost
        Subject Public Key Info:
            Public Key Algorithm: ED25519
                ED25519 Public-Key:
                pub:
                    80:44:44:6d:d2:c4:34:87:e7:d9:79:e8:ac:b8:52:
                    6b:b4:32:57:cb:29:b2:e5:18:b2:d3:70:5c:98:ce:
                    44:68
        X509v3 extensions:
            X509v3 Key Usage: critical
                Digital Signature, Key Encipherment, Key Agreement
            X509v3 Extended Key Usage: 
                TLS Web Server Authentication
            X509v3 Subject Key Identifier: 
                4D:D9:B2:C9:10:DD:CE:93:4E:AE:24:9C:32:06:07:17:1C:F3:A5:FD
            X509v3 Authority Key Identifier: 
                7B:52:A6:53:A9:4B:36:80:20:60:59:E5:CC:CA:4C:33:3D:16:CB:9B
    Signature Algorithm: ED25519
    Signature Value:
        b5:22:33:35:62:76:b4:39:e5:5b:b4:09:1e:95:52:8c:a1:9a:
        29:fa:44:73:2c:41:80:c7:0b:86:5f:bc:a9:dd:22:2f:ae:0b:
        81:fd:df:4b:6a:00:9e:9c:58:7c:5e:d2:3a:5b:03:63:9f:79:
        ca:b1:55:a0:ad:26:16:d3:e1:05
-----BEGIN CERTIFICATE-----
MIIBPjCB8aADAgECAgECMAUGAytlcDAVMRMwEQYDVQQKDApFeGFtcGxlIENBMB4X
DTI0MTIyNDE0MjUwOVoXDTI1MTIyNDE0MjUwOVowFDESMBAGA1UEAwwJbG9jYWxo
b3N0MCowBQYDK2VwAyEAgEREbdLENIfn2XnorLhSa7QyV8spsuUYstNwXJjORGij
ZzBlMA4GA1UdDwEB/wQEAwIDqDATBgNVHSUEDDAKBggrBgEFBQcDATAdBgNVHQ4E
FgQUTdmyyRDdzpNOriScMgYHFxzzpf0wHwYDVR0jBBgwFoAUe1KmU6lLNoAgYFnl
zMpMMz0Wy5swBQYDK2VwA0EAtSIzNWJ2tDnlW7QJHpVSjKGaKfpEcyxBgMcLhl+8
qd0iL64Lgf3fS2oAnpxYfF7SOlsDY595yrFVoK0mFtPhBQ==
-----END CERTIFICATE-----
