Certificate:
    Data:
        Version: 3 (0x2)
        Serial Number: 3 (0x3)
        Signature Algorithm: ED25519
        Issuer: O=Example CA
        Validity
            Not Before: Dec 24 14:25:09 2024 GMT
            Not After : Dec 24 14:25:09 2025 GMT
        Subject: CN=John Smith
        Subject Public Key Info:
            Public Key Algorithm: ED25519
                ED25519 Public-Key:
                pub:
                    43:95:24:a1:bf:2e:48:b7:9b:89:8b:77:30:cc:08:
                    a7:63:c5:3b:ea:93:a9:09:46:f1:54:e9:02:2a:d1:
                    4c:97
        X509v3 extensions:
            X509v3 Key Usage: 
                Digital Signature, Key Encipherment
            X509v3 Extended Key Usage: 
                TLS Web Client Authentication, E-mail Protection
            X509v3 Subject Key Identifier: 
                21:BA:20:F1:14:2E:65:24:F1:F9:54:FE:91:A7:E4:B2:5C:E8:4F:80
            X509v3 Authority Key Identifier: 
                7B:52:A6:53:A9:4B:36:80:20:60:59:E5:CC:CA:4C:33:3D:16:CB:9B
    Signature Algorithm: ED25519
    Signature Value:
        60:a5:6b:54:b7:73:bf:b6:be:c9:d0:25:81:0b:7f:bd:65:5c:
        55:12:f4:4c:64:9c:03:f5:9a:a6:a0:02:c9:9a:56:8d:1e:1c:
        9f:a8:8d:96:2e:12:b8:85:ed:7b:3b:ef:b0:05:b6:fc:5c:61:
        0d:b5:78:9b:cf:df:bc:51:65:05
-----BEGIN CERTIFICATE-----
MIIBRjCB+aADAgECAgEDMAUGAytlcDAVMRMwEQYDVQQKDApFeGFtcGxlIENBMB4X
DTI0MTIyNDE0MjUwOVoXDTI1MTIyNDE0MjUwOVowFTETMBEGA1UEAwwKSm9obiBT
bWl0aDAqMAUGAytlcAMhAEOVJKG/Lki3m4mLdzDMCKdjxTvqk6kJRvFU6QIq0UyX
o24wbDALBgNVHQ8EBAMCBaAwHQYDVR0lBBYwFAYIKwYBBQUHAwIGCCsGAQUFBwME
MB0GA1UdDgQWBBQhuiDxFC5lJPH5VP6Rp+SyXOhPgDAfBgNVHSMEGDAWgBR7UqZT
qUs2gCBgWeXMykwzPRbLmzAFBgMrZXADQQBgpWtUt3O/tr7J0CWBC3+9ZVxVEvRM
ZJwD9ZqmoALJmlaNHhyfqI2WLhK4he17O++wBbb8XGENtXibz9+8UWUF
-----END CERTIFICATE-----
