Certificate:
    Data:
        Version: 3 (0x2)
        Serial Number: 2 (0x2)
        Signature Algorithm: ED448
        Issuer: O=Example CA
        Validity
            Not Before: Dec 24 14:25:09 2024 GMT
            Not After : Dec 24 14:25:09 2025 GMT
        Subject: CN=localhost
        Subject Public Key Info:
            Public Key Algorithm: ED448
                ED448 Public-Key:
                pub:
                    f8:c4:1a:b9:10:8b:58:47:3a:57:ab:0e:f9:b9:77:
                    f5:ac:2e:2d:94:e2:ce:ce:b1:aa:35:8a:de:cf:aa:
                    92:01:fe:20:7d:d3:99:ce:63:a8:1a:a1:51:da:b8:
                    87:7b:6c:f2:25:89:61:06:8e:a8:41:80
        X509v3 extensions:
            X509v3 Key Usage: critical
                Digital Signature, Key Encipherment, Key Agreement
            X509v3 Extended Key Usage: 
                TLS Web Server Authentication
            X509v3 Subject Key Identifier: 
                77:B6:7A:6C:AE:5B:59:37:36:86:3B:41:65:D1:60:EF:78:6C:D6:FF
            X509v3 Authority Key Identifier: 
                1E:79:4E:1C:75:A6:78:0F:4C:01:1A:68:34:49:6A:37:E2:16:38:F7
    Signature Algorithm: ED448
    Signature Value:
        8d:97:62:a9:0f:04:1e:15:8f:a0:2b:78:c7:79:ca:ff:be:e5:
        25:31:01:25:fa:e9:22:40:e6:f3:39:92:00:a4:65:0d:eb:7c:
        8d:23:38:8f:06:3b:35:2d:c3:6a:b4:7b:93:80:53:09:93:a7:
        d7:9a:80:83:51:d6:b7:86:a0:4a:c8:55:d8:55:ef:45:f3:59:
        a6:4e:53:66:ce:a9:5e:d6:c6:d9:c8:e9:c9:3c:a8:5e:a9:55:
        36:22:e2:73:48:fd:d3:8c:9f:66:cf:4e:a6:dd:3e:2a:f7:c6:
        61:43:c7:ec:28:00
-----BEGIN CERTIFICATE-----
MIIBijCCAQqgAwIBAgIBAjAFBgMrZXEwFTETMBEGA1UECgwKRXhhbXBsZSBDQTAe
Fw0yNDEyMjQxNDI1MDlaFw0yNTEyMjQxNDI1MDlaMBQxEjAQBgNVBAMMCWxvY2Fs
aG9zdDBDMAUGAytlcQM6APjEGrkQi1hHOlerDvm5d/WsLi2U4s7Osao1it7PqpIB
/iB905nOY6gaoVHauId7bPIliWEGjqhBgKNnMGUwDgYDVR0PAQH/BAQDAgOoMBMG
A1UdJQQMMAoGCCsGAQUFBwMBMB0GA1UdDgQWBBR3tnpsrltZNzaGO0Fl0WDveGzW
/zAfBgNVHSMEGDAWgBQeeU4cdaZ4D0wBGmg0SWo34hY49zAFBgMrZXEDcwCNl2Kp
DwQeFY+gK3jHecr/vuUlMQEl+ukiQObzOZIApGUN63yNIziPBjs1LcNqtHuTgFMJ
k6fXmoCDUda3hqBKyFXYVe9F81mmTlNmzqle1sbZyOnJPKheqVU2IuJzSP3TjJ9m
z06m3T4q98ZhQ8fsKAA=
-----END CERTIFICATE-----
