Certificate:
    Data:
        Version: 3 (0x2)
        Serial Number: 3 (0x3)
        Signature Algorithm: ED448
        Issuer: O=Example CA
        Validity
            Not Before: Dec 24 14:25:09 2024 GMT
            Not After : Dec 24 14:25:09 2025 GMT
        Subject: CN=John Smith
        Subject Public Key Info:
            Public Key Algorithm: ED448
                ED448 Public-Key:
                pub:
                    c4:0d:35:ab:29:30:ed:81:4c:96:b5:0b:c5:81:7e:
                    40:d0:a6:8d:e8:14:8f:4c:d7:c1:e1:51:03:ad:06:
                    0a:91:d0:48:13:bc:f0:0d:b9:8a:93:b6:ee:94:bc:
                    fb:b6:a9:9e:79:fb:aa:dd:70:38:32:80
        X509v3 extensions:
            X509v3 Key Usage: 
                Digital Signature, Key Encipherment
            X509v3 Extended Key Usage: 
                TLS Web Client Authentication, E-mail Protection
            X509v3 Subject Key Identifier: 
                7E:CC:A1:FD:4D:46:3F:5B:8C:C5:B0:EC:D1:34:71:05:DD:6A:BC:A6
            X509v3 Authority Key Identifier: 
                1E:79:4E:1C:75:A6:78:0F:4C:01:1A:68:34:49:6A:37:E2:16:38:F7
    Signature Algorithm: ED448
    Signature Value:
        fe:4d:b0:a8:8c:9e:74:b1:f4:a6:86:eb:27:61:74:76:78:70:
        28:7f:e4:ea:4f:4a:74:1a:4d:13:3d:a8:e5:d3:59:b2:ae:b8:
        85:b1:9e:68:59:53:23:c0:d8:a3:13:d4:ab:43:94:82:98:ab:
        b3:b6:80:9c:14:16:fd:e2:50:74:15:e3:8c:a4:70:21:6b:54:
        72:38:89:7d:4a:d7:f4:81:02:bb:65:75:14:74:40:5c:3a:f4:
        6d:32:64:04:bb:80:84:d1:3a:07:ec:94:91:25:ba:a6:14:d3:
        50:c7:2e:35:0d:00
-----BEGIN CERTIFICATE-----
MIIBkjCCARKgAwIBAgIBAzAFBgMrZXEwFTETMBEGA1UECgwKRXhhbXBsZSBDQTAe
Fw0yNDEyMjQxNDI1MDlaFw0yNTEyMjQxNDI1MDlaMBUxEzARBgNVBAMMCkpvaG4g
U21pdGgwQzAFBgMrZXEDOgDEDTWrKTDtgUyWtQvFgX5A0KaN6BSPTNfB4VEDrQYK
kdBIE7zwDbmKk7bulLz7tqmeefuq3XA4MoCjbjBsMAsGA1UdDwQEAwIFoDAdBgNV
HSUEFjAUBggrBgEFBQcDAgYIKwYBBQUHAwQwHQYDVR0OBBYEFH7Mof1NRj9bjMWw
7NE0cQXdarymMB8GA1UdIwQYMBaAFB55Thx1pngPTAEaaDRJajfiFjj3MAUGAytl
cQNzAP5NsKiMnnSx9KaG6ydhdHZ4cCh/5OpPSnQaTRM9qOXTWbKuuIWxnmhZUyPA
2KMT1KtDlIKYq7O2gJwUFv3iUHQV44ykcCFrVHI4iX1K1/SBArtldRR0QFw69G0y
ZAS7gITROgfslJEluqYU01DHLjUNAA==
-----END CERTIFICATE-----
