Certificate:
    Data:
        Version: 3 (0x2)
        Serial Number: 1 (0x1)
        Signature Algorithm: ED448
        Issuer: O=Example CA
        Validity
            Not Before: Dec 24 14:25:09 2019 GMT
            Not After : Dec 24 14:25:09 2034 GMT
        Subject: O=Example CA
        Subject Public Key Info:
            Public Key Algorithm: ED448
                ED448 Public-Key:
                pub:
                    9f:42:0a:58:fd:97:55:98:d7:98:7a:d1:0a:43:08:
                    8d:ff:9e:76:46:ec:0f:7e:29:12:c0:42:a4:0f:e4:
                    04:0d:0e:ce:6a:3c:51:7d:dc:92:36:57:71:bd:74:
                    14:39:0b:8d:c7:ec:67:2d:c9:32:aa:00
        X509v3 extensions:
            X509v3 Basic Constraints: critical
                CA:TRUE
            X509v3 Key Usage: critical
                Certificate Sign, CRL Sign
            X509v3 Subject Key Identifier: 
                1E:79:4E:1C:75:A6:78:0F:4C:01:1A:68:34:49:6A:37:E2:16:38:F7
            X509v3 Authority Key Identifier: 
                1E:79:4E:1C:75:A6:78:0F:4C:01:1A:68:34:49:6A:37:E2:16:38:F7
    Signature Algorithm: ED448
    Signature Value:
        f5:48:56:c6:ad:3b:9d:e1:03:68:e9:a6:32:bb:d3:5f:34:31:
        25:df:1e:e2:8c:e8:e6:4c:b0:8a:19:f9:e4:8a:0a:fb:fb:ff:
        11:46:98:2c:e3:10:5d:95:44:30:49:c5:d4:d5:e4:42:a9:fe:
        36:51:00:7f:6e:a8:85:84:48:ae:71:19:d3:b1:ca:23:35:76:
        6b:60:0c:dd:c6:7c:2e:02:25:75:82:3a:37:f3:95:9f:7b:0c:
        24:76:78:51:7c:dc:b7:4a:ae:29:35:8c:d3:d6:03:c8:c4:ca:
        37:aa:1d:8f:34:00
-----BEGIN CERTIFICATE-----
MIIBhzCCAQegAwIBAgIBATAFBgMrZXEwFTETMBEGA1UECgwKRXhhbXBsZSBDQTAe
Fw0xOTEyMjQxNDI1MDlaFw0zNDEyMjQxNDI1MDlaMBUxEzARBgNVBAoMCkV4YW1w
bGUgQ0EwQzAFBgMrZXEDOgCfQgpY/ZdVmNeYetEKQwiN/552RuwPfikSwEKkD+QE
DQ7OajxRfdySNldxvXQUOQuNx+xnLckyqgCjYzBhMA8GA1UdEwEB/wQFMAMBAf8w
DgYDVR0PAQH/BAQDAgEGMB0GA1UdDgQWBBQeeU4cdaZ4D0wBGmg0SWo34hY49zAf
BgNVHSMEGDAWgBQeeU4cdaZ4D0wBGmg0SWo34hY49zAFBgMrZXEDcwD1SFbGrTud
4QNo6aYyu9NfNDEl3x7ijOjmTLCKGfnkigr7+/8RRpgs4xBdlUQwScXU1eRCqf42
UQB/bqiFhEiucRnTscojNXZrYAzdxnwuAiV1gjo385WfewwkdnhRfNy3Sq4pNYzT
1gPIxMo3qh2PNAA=
-----END CERTIFICATE-----
