Certificate:
    Data:
        Version: 3 (0x2)
        Serial Number: 1 (0x1)
        Signature Algorithm: rsassaPss        
        Hash Algorithm: sha256
        Mask Algorithm: mgf1 with sha256
         Salt Length: 0xDE
        Trailer Field: 0x01 (default)
        Issuer: O=Example CA
        Validity
            Not Before: Dec 24 14:25:08 2019 GMT
            Not After : Dec 24 14:25:08 2034 GMT
        Subject: O=Example CA
        Subject Public Key Info:
            Public Key Algorithm: rsassaPss
                Public-Key: (2048 bit)
                Modulus:
                    00:a5:0a:5c:20:fb:8d:a7:15:09:05:09:fa:0d:2b:
                    8d:ff:0f:8c:8e:47:d8:bc:64:bb:b4:78:a6:0c:56:
                    9b:c5:fc:d2:ff:1b:f3:53:e9:31:2b:f3:4d:d0:18:
                    6b:e1:c1:9b:03:69:b0:62:93:da:e6:39:89:52:63:
                    a5:62:19:5a:84:b5:80:53:2a:0c:fb:7d:56:0b:ec:
                    c3:b5:5c:76:61:ef:46:fe:5c:fe:a9:f6:a1:76:95:
                    3f:35:1f:cc:ae:96:cc:65:b2:49:d2:17:c0:1d:aa:
                    45:9c:2c:65:35:f9:37:4d:93:fc:7c:e3:e3:b6:e1:
                    04:f6:07:5e:5a:2d:b0:d2:23:78:3c:82:3c:9c:18:
                    bf:82:78:67:6a:e5:63:8e:6d:16:f7:a2:01:90:a5:
                    3a:f2:ed:f6:05:8c:41:2b:6e:1e:86:d8:75:cb:fa:
                    42:c1:d6:b9:93:39:d0:20:c1:99:e1:6e:38:55:da:
                    23:16:ca:8b:76:f5:45:cb:74:5c:87:ac:76:7d:f8:
                    2e:af:3a:b3:18:96:b2:a1:ae:74:3f:1f:66:a8:2f:
                    05:47:a7:a0:c6:96:5f:2e:e0:68:45:f9:19:36:a2:
                    14:ac:b6:98:fb:54:a3:a6:63:13:50:f7:55:f8:a4:
                    11:64:07:8a:e3:90:eb:6a:1c:9d:00:09:23:1b:95:
                    12:61
                Exponent: 65537 (0x10001)
                No PSS parameter restrictions
        X509v3 extensions:
            X509v3 Basic Constraints: critical
                CA:TRUE
            X509v3 Key Usage: critical
                Certificate Sign, CRL Sign
            X509v3 Subject Key Identifier: 
                4E:E7:54:31:FD:F3:13:58:D1:0D:99:D8:DC:8A:5C:39:ED:57:8C:DA
            X509v3 Authority Key Identifier: 
                4E:E7:54:31:FD:F3:13:58:D1:0D:99:D8:DC:8A:5C:39:ED:57:8C:DA
    Signature Algorithm: rsassaPss
    Signature Value:        
        Hash Algorithm: sha256
        Mask Algorithm: mgf1 with sha256
         Salt Length: 0xDE
        Trailer Field: 0x01 (default)
        7f:40:4b:9e:1d:f9:fe:a8:28:42:60:b5:6e:27:5c:91:d2:3f:
        bb:ee:74:b3:dc:eb:ce:59:f1:62:91:63:8e:a9:e5:20:22:e0:
        7c:1e:57:e3:54:02:e8:b8:82:78:eb:6f:11:a5:d4:e3:d1:82:
        e6:93:72:03:2a:d5:31:f8:7c:45:41:22:29:77:0e:55:72:a6:
        d9:eb:b6:01:fc:81:a9:fb:a4:02:6d:b7:4b:e0:a1:c2:de:90:
        ef:d9:12:aa:61:86:0f:02:8e:2f:2a:da:ca:a4:c8:20:5e:8c:
        e2:58:01:9c:a2:3a:33:16:ce:00:4a:4c:31:46:dc:67:f8:fe:
        2c:ab:2b:60:7a:41:20:06:54:85:ef:55:75:76:df:f6:5d:de:
        b7:68:2a:78:da:a3:8c:bf:55:83:23:90:7c:8a:57:13:f7:a2:
        7c:79:a6:ff:dd:3e:f0:e5:6f:0a:90:c5:15:ec:f4:5d:bc:b7:
        af:65:26:ee:47:1c:be:ca:17:fb:cf:71:5c:46:a8:46:b8:e9:
        22:2d:07:83:66:9d:13:ab:91:a4:a9:b8:8b:fd:5c:c3:6c:90:
        65:33:6c:23:7a:25:07:d4:04:b0:ca:31:6f:5e:c4:97:7a:20:
        1a:71:91:79:d1:0c:7d:b0:8f:7d:28:68:0e:c0:97:0f:a3:16:
        50:63:7a:53
-----BEGIN CERTIFICATE-----
MIIDcDCCAiOgAwIBAgIBATBCBgkqhkiG9w0BAQowNaAPMA0GCWCGSAFlAwQCAQUA
oRwwGgYJKoZIhvcNAQEIMA0GCWCGSAFlAwQCAQUAogQCAgDeMBUxEzARBgNVBAoM
CkV4YW1wbGUgQ0EwHhcNMTkxMjI0MTQyNTA4WhcNMzQxMjI0MTQyNTA4WjAVMRMw
EQYDVQQKDApFeGFtcGxlIENBMIIBIDALBgkqhkiG9w0BAQoDggEPADCCAQoCggEB
AKUKXCD7jacVCQUJ+g0rjf8PjI5H2Lxku7R4pgxWm8X80v8b81PpMSvzTdAYa+HB
mwNpsGKT2uY5iVJjpWIZWoS1gFMqDPt9Vgvsw7VcdmHvRv5c/qn2oXaVPzUfzK6W
zGWySdIXwB2qRZwsZTX5N02T/Hzj47bhBPYHXlotsNIjeDyCPJwYv4J4Z2rlY45t
FveiAZClOvLt9gWMQStuHobYdcv6QsHWuZM50CDBmeFuOFXaIxbKi3b1Rct0XIes
dn34Lq86sxiWsqGudD8fZqgvBUenoMaWXy7gaEX5GTaiFKy2mPtUo6ZjE1D3Vfik
EWQHiuOQ62ocnQAJIxuVEmECAwEAAaNjMGEwDwYDVR0TAQH/BAUwAwEB/zAOBgNV
HQ8BAf8EBAMCAQYwHQYDVR0OBBYEFE7nVDH98xNY0Q2Z2NyKXDntV4zaMB8GA1Ud
IwQYMBaAFE7nVDH98xNY0Q2Z2NyKXDntV4zaMEIGCSqGSIb3DQEBCjA1oA8wDQYJ
YIZIAWUDBAIBBQChHDAaBgkqhkiG9w0BAQgwDQYJYIZIAWUDBAIBBQCiBAICAN4D
ggEBAH9AS54d+f6oKEJgtW4nXJHSP7vudLPc685Z8WKRY46p5SAi4HweV+NUAui4
gnjrbxGl1OPRguaTcgMq1TH4fEVBIil3DlVyptnrtgH8gan7pAJtt0vgocLekO/Z
Eqphhg8Cji8q2sqkyCBejOJYAZyiOjMWzgBKTDFG3Gf4/iyrK2B6QSAGVIXvVXV2
3/Zd3rdoKnjao4y/VYMjkHyKVxP3onx5pv/dPvDlbwqQxRXs9F28t69lJu5HHL7K
F/vPcVxGqEa46SItB4NmnROrkaSpuIv9XMNskGUzbCN6JQfUBLDKMW9exJd6IBpx
kXnRDH2wj30oaA7Alw+jFlBjelM=
-----END CERTIFICATE-----
