Certificate:
    Data:
        Version: 3 (0x2)
        Serial Number: 3 (0x3)
        Signature Algorithm: rsassaPss        
        Hash Algorithm: sha256
        Mask Algorithm: mgf1 with sha256
         Salt Length: 0xDE
        Trailer Field: 0x01 (default)
        Issuer: O=Example CA
        Validity
            Not Before: Dec 24 14:25:08 2024 GMT
            Not After : Dec 24 14:25:08 2025 GMT
        Subject: CN=John Smith
        Subject Public Key Info:
            Public Key Algorithm: rsassaPss
                Public-Key: (2048 bit)
                Modulus:
                    00:a0:08:08:29:57:ab:6e:96:e3:45:6f:0a:cd:ea:
                    cb:cd:90:88:a1:67:2a:81:c1:ff:95:fb:62:8b:a6:
                    c8:7e:73:5d:34:b0:3c:89:ca:25:03:80:8a:b7:67:
                    23:69:0c:d7:fe:be:0f:64:2c:2c:4b:67:54:24:60:
                    8b:d3:61:17:21:30:90:b3:f2:f2:27:c9:2a:b4:04:
                    22:67:92:28:d4:c0:10:64:00:71:ef:5f:1f:b7:10:
                    00:ee:ac:c3:51:b4:87:5a:32:7b:17:c4:43:32:98:
                    24:fa:8a:a1:8e:0b:fc:0d:ef:72:59:3d:2f:51:1a:
                    16:79:3f:d2:0a:8f:5c:7a:b9:00:06:5d:49:34:51:
                    a5:99:74:79:3e:75:19:42:52:63:ea:b9:c3:65:3f:
                    0d:af:50:b2:e1:a4:52:f1:fa:ed:31:99:ba:16:98:
                    08:87:e6:3d:15:27:57:8b:42:89:37:97:28:d7:89:
                    d6:d7:2d:bd:97:ac:65:18:d5:f5:e5:9a:c0:4d:a3:
                    e2:45:7f:16:1a:6b:12:85:1d:b7:6b:88:23:be:ff:
                    8c:7d:a8:65:1e:ce:8a:be:7a:e3:68:99:15:22:4e:
                    24:c9:eb:ba:2c:3a:34:8a:ba:25:bc:14:51:6d:ea:
                    11:f4:f8:3b:5b:a7:92:34:99:1e:ea:5c:f4:c0:ac:
                    0a:65
                Exponent: 65537 (0x10001)
                No PSS parameter restrictions
        X509v3 extensions:
            X509v3 Key Usage: 
                Digital Signature, Key Encipherment
            X509v3 Extended Key Usage: 
                TLS Web Client Authentication, E-mail Protection
            X509v3 Subject Key Identifier: 
                B5:9B:E1:92:26:FB:FF:4D:35:81:E2:04:30:9E:79:34:6C:26:41:33
            X509v3 Authority Key Identifier: 
                4E:E7:54:31:FD:F3:13:58:D1:0D:99:D8:DC:8A:5C:39:ED:57:8C:DA
    Signature Algorithm: rsassaPss
    Signature Value:        
        Hash Algorithm: sha256
        Mask Algorithm: mgf1 with sha256
         Salt Length: 0xDE
        Trailer Field: 0x01 (default)
        5d:4f:63:16:98:bf:55:f3:32:2e:11:99:c6:da:e0:4d:88:19:
        29:b9:ac:79:e0:5f:43:65:ca:dd:04:79:55:78:4b:6b:2d:36:
        1b:94:9d:6d:52:bc:d2:38:77:3b:22:75:76:81:d6:a1:3d:9d:
        1a:d0:76:e2:ce:88:c6:a9:c4:c9:14:bb:2e:d5:f4:f3:c4:c5:
        bd:4c:21:fc:ba:10:ac:11:27:4d:bb:d5:9c:fc:2f:86:cc:93:
        a7:ee:6e:2e:fc:83:03:8e:4d:64:0b:23:fd:08:fb:8d:48:cb:
        ee:9c:fb:13:1d:5b:12:1c:c8:9f:43:47:ff:8c:9a:e6:a5:c6:
        74:0b:4c:74:e9:84:83:a9:9a:87:6e:1d:02:2d:a0:54:71:09:
        38:07:64:2a:e2:44:78:15:51:af:dd:c7:7a:3e:33:7c:57:2e:
        ca:6c:b0:d6:91:6a:90:25:9c:49:b7:66:3f:3f:66:b1:93:a5:
        1e:9f:11:9f:23:9c:05:c3:8c:db:07:81:1f:c3:86:ef:f8:1d:
        70:aa:02:b9:39:83:77:f2:75:a0:7a:7e:f8:16:3a:81:3a:80:
        48:38:e6:c6:00:cd:78:62:b9:2e:4f:05:23:19:39:a7:c6:f0:
        14:80:34:de:b5:33:bf:9e:55:b5:8c:08:38:f1:51:13:38:53:
        d2:a4:10:79
-----BEGIN CERTIFICATE-----
MIIDezCCAi6gAwIBAgIBAzBCBgkqhkiG9w0BAQowNaAPMA0GCWCGSAFlAwQCAQUA
oRwwGgYJKoZIhvcNAQEIMA0GCWCGSAFlAwQCAQUAogQCAgDeMBUxEzARBgNVBAoM
CkV4YW1wbGUgQ0EwHhcNMjQxMjI0MTQyNTA4WhcNMjUxMjI0MTQyNTA4WjAVMRMw
EQYDVQQDDApKb2huIFNtaXRoMIIBIDALBgkqhkiG9w0BAQoDggEPADCCAQoCggEB
AKAICClXq26W40VvCs3qy82QiKFnKoHB/5X7YoumyH5zXTSwPInKJQOAirdnI2kM
1/6+D2QsLEtnVCRgi9NhFyEwkLPy8ifJKrQEImeSKNTAEGQAce9fH7cQAO6sw1G0
h1oyexfEQzKYJPqKoY4L/A3vclk9L1EaFnk/0gqPXHq5AAZdSTRRpZl0eT51GUJS
Y+q5w2U/Da9QsuGkUvH67TGZuhaYCIfmPRUnV4tCiTeXKNeJ1tctvZesZRjV9eWa
wE2j4kV/FhprEoUdt2uII77/jH2oZR7Oir5642iZFSJOJMnruiw6NIq6JbwUUW3q
EfT4O1unkjSZHupc9MCsCmUCAwEAAaNuMGwwCwYDVR0PBAQDAgWgMB0GA1UdJQQW
MBQGCCsGAQUFBwMCBggrBgEFBQcDBDAdBgNVHQ4EFgQUtZvhkib7/001geIEMJ55
NGwmQTMwHwYDVR0jBBgwFoAUTudUMf3zE1jRDZnY3IpcOe1XjNowQgYJKoZIhvcN
AQEKMDWgDzANBglghkgBZQMEAgEFAKEcMBoGCSqGSIb3DQEBCDANBglghkgBZQME
AgEFAKIEAgIA3gOCAQEAXU9jFpi/VfMyLhGZxtrgTYgZKbmseeBfQ2XK3QR5VXhL
ay02G5SdbVK80jh3OyJ1doHWoT2dGtB24s6IxqnEyRS7LtX088TFvUwh/LoQrBEn
TbvVnPwvhsyTp+5uLvyDA45NZAsj/Qj7jUjL7pz7Ex1bEhzIn0NH/4ya5qXGdAtM
dOmEg6mah24dAi2gVHEJOAdkKuJEeBVRr93Hej4zfFcuymyw1pFqkCWcSbdmPz9m
sZOlHp8RnyOcBcOM2weBH8OG7/gdcKoCuTmDd/J1oHp++BY6gTqASDjmxgDNeGK5
Lk8FIxk5p8bwFIA03rUzv55VtYwIOPFREzhT0qQQeQ==
-----END CERTIFICATE-----
