Certificate:
    Data:
        Version: 3 (0x2)
        Serial Number: 1 (0x1)
        Signature Algorithm: sha256WithRSAEncryption
        Issuer: O=Example CA
        Validity
            Not Before: Dec 24 14:25:08 2019 GMT
            Not After : Dec 24 14:25:08 2034 GMT
        Subject: O=Example CA
        Subject Public Key Info:
            Public Key Algorithm: rsaEncryption
                Public-Key: (2048 bit)
                Modulus:
                    00:c5:b0:85:70:f4:a0:b4:48:83:4d:c2:49:d8:4d:
                    db:76:3c:f0:85:5a:4d:f4:99:6d:22:40:c8:a0:3b:
                    6b:6b:f6:8a:41:c3:a3:17:fb:ca:55:a5:93:24:54:
                    88:06:77:80:56:09:0a:20:59:5b:85:bd:28:20:ee:
                    72:c9:9a:e6:37:31:47:bb:b4:ab:e0:6a:dc:29:e4:
                    c3:0c:1e:61:e5:1d:c6:65:6f:f6:1c:d6:e3:90:b7:
                    d8:08:38:4e:b9:28:48:7f:66:ad:4c:b9:3b:80:83:
                    be:e7:f9:7b:ec:f2:a6:39:ea:ad:7b:72:0f:0f:62:
                    e4:f9:1e:1d:28:f3:d9:65:f4:f4:25:5d:0e:0a:59:
                    cb:fb:12:d0:48:aa:ef:ce:00:09:28:e9:68:24:ce:
                    5a:6c:d1:69:17:e3:84:07:a2:15:e5:17:de:51:ea:
                    2f:d7:79:f6:8a:0c:5c:33:b0:c8:4b:85:39:79:46:
                    1b:7a:3b:dd:f2:92:d4:3e:6e:de:7f:30:fc:23:08:
                    5d:d4:a9:09:2a:76:76:b4:1a:e2:5c:7b:c4:ea:ca:
                    f2:94:2a:2a:24:9a:6d:13:39:ec:69:4a:77:b9:12:
                    b2:14:c0:64:7c:5c:e8:6c:41:ad:01:aa:4e:4b:78:
                    05:a4:96:e6:6d:3a:93:cf:f0:e0:17:92:ab:3d:a6:
                    94:b9
                Exponent: 65537 (0x10001)
        X509v3 extensions:
            X509v3 Basic Constraints: critical
                CA:TRUE
            X509v3 Key Usage: critical
                Certificate Sign, CRL Sign
            X509v3 Subject Key Identifier: 
                6F:30:7F:55:94:88:43:58:F1:A6:BE:E3:38:AD:7E:15:24:FD:0A:AA
            X509v3 Authority Key Identifier: 
                6F:30:7F:55:94:88:43:58:F1:A6:BE:E3:38:AD:7E:15:24:FD:0A:AA
    Signature Algorithm: sha256WithRSAEncryption
    Signature Value:
        70:ed:f5:6c:92:05:55:59:1b:1e:d7:d3:81:42:7e:52:35:04:
        4e:04:ec:e6:b9:e8:b7:ef:04:9c:af:bb:c4:f8:49:6e:ae:d0:
        e4:7a:76:3e:32:63:a9:9c:75:97:45:30:ca:79:14:5b:18:98:
        5e:cb:9d:c3:27:2e:c2:33:2d:b7:0d:0e:c3:74:52:82:37:31:
        3f:ed:c7:ea:57:ff:1a:4e:12:fe:c3:2d:1f:dc:b5:5c:eb:8e:
        19:aa:1d:63:5c:6d:38:7f:f7:65:a5:96:1e:f8:b0:bb:af:27:
        88:01:e9:2e:96:4b:30:65:86:78:2f:28:75:29:0f:87:f5:b5:
        2e:66:1e:4b:ee:91:76:06:01:f2:6c:53:96:d4:d5:4a:a6:9b:
        12:13:0e:47:dd:a6:f3:8f:03:4d:56:04:f3:cf:24:a5:e6:fe:
        36:33:10:e8:6b:be:d4:6b:d2:b3:66:99:59:b2:0e:01:72:42:
        f1:81:44:e5:11:c1:ba:5b:6a:ac:ce:c0:b0:c0:d4:ae:43:f9:
        ba:b6:59:60:1d:50:c9:06:13:84:b9:59:a4:da:70:28:1f:43:
        0e:94:b1:cc:6f:16:24:4d:0b:b4:4a:07:49:04:50:5c:1d:db:
        31:cd:45:20:45:2b:c9:49:bc:26:73:08:3e:db:b6:75:6c:d8:
        f2:72:2d:bb
-----BEGIN CERTIFICATE-----
MIIDCDCCAfCgAwIBAgIBATANBgkqhkiG9w0BAQsFADAVMRMwEQYDVQQKDApFeGFt
cGxlIENBMB4XDTE5MTIyNDE0MjUwOFoXDTM0MTIyNDE0MjUwOFowFTETMBEGA1UE
CgwKRXhhbXBsZSBDQTCCASIwDQYJKoZIhvcNAQEBBQADggEPADCCAQoCggEBAMWw
hXD0oLRIg03CSdhN23Y88IVaTfSZbSJAyKA7a2v2ikHDoxf7ylWlkyRUiAZ3gFYJ
CiBZW4W9KCDucsma5jcxR7u0q+Bq3CnkwwweYeUdxmVv9hzW45C32Ag4TrkoSH9m
rUy5O4CDvuf5e+zypjnqrXtyDw9i5PkeHSjz2WX09CVdDgpZy/sS0Eiq784ACSjp
aCTOWmzRaRfjhAeiFeUX3lHqL9d59ooMXDOwyEuFOXlGG3o73fKS1D5u3n8w/CMI
XdSpCSp2drQa4lx7xOrK8pQqKiSabRM57GlKd7kSshTAZHxc6GxBrQGqTkt4BaSW
5m06k8/w4BeSqz2mlLkCAwEAAaNjMGEwDwYDVR0TAQH/BAUwAwEB/zAOBgNVHQ8B
Af8EBAMCAQYwHQYDVR0OBBYEFG8wf1WUiENY8aa+4zitfhUk/QqqMB8GA1UdIwQY
MBaAFG8wf1WUiENY8aa+4zitfhUk/QqqMA0GCSqGSIb3DQEBCwUAA4IBAQBw7fVs
kgVVWRse19OBQn5SNQROBOzmuei37wScr7vE+ElurtDkenY+MmOpnHWXRTDKeRRb
GJhey53DJy7CMy23DQ7DdFKCNzE/7cfqV/8aThL+wy0f3LVc644Zqh1jXG04f/dl
pZYe+LC7ryeIAekulkswZYZ4Lyh1KQ+H9bUuZh5L7pF2BgHybFOW1NVKppsSEw5H
3abzjwNNVgTzzySl5v42MxDoa77Ua9KzZplZsg4BckLxgUTlEcG6W2qszsCwwNSu
Q/m6tllgHVDJBhOEuVmk2nAoH0MOlLHMbxYkTQu0SgdJBFBcHdsxzUUgRSvJSbwm
cwg+27Z1bNjyci27
-----END CERTIFICATE-----
