Certificate:
    Data:
        Version: 3 (0x2)
        Serial Number: 2 (0x2)
        Signature Algorithm: sha256WithRSAEncryption
        Issuer: O=Example CA
        Validity
            Not Before: Dec 24 14:25:08 2024 GMT
            Not After : Dec 24 14:25:08 2025 GMT
        Subject: CN=localhost
        Subject Public Key Info:
            Public Key Algorithm: rsaEncryption
                Public-Key: (2048 bit)
                Modulus:
                    00:ad:d7:ab:26:77:8e:2a:14:a6:e1:0c:89:80:49:
                    f4:62:b5:f7:5b:1d:c7:3f:5d:2c:7d:a1:40:9f:3c:
                    28:96:cb:09:30:ee:b2:2f:ef:ca:da:2b:14:1a:aa:
                    0a:2d:f2:50:78:24:34:1b:88:5d:d4:03:73:30:f3:
                    f7:6c:5d:50:e2:e5:b2:ab:24:69:23:6f:b0:58:92:
                    f1:23:60:fa:03:88:c8:ba:5b:5d:14:d7:03:b7:25:
                    dc:27:1d:12:21:2b:2c:f9:32:5b:24:c3:79:fb:1a:
                    9a:77:44:3b:6b:d2:39:e3:ff:3e:cb:7b:70:20:28:
                    7b:72:d6:dd:45:c7:2a:ed:71:98:02:69:70:a1:5c:
                    35:88:16:d2:50:f5:e2:05:3b:cd:1e:2a:7b:86:ca:
                    1f:06:80:a5:4c:32:dd:e9:ea:57:7d:83:6e:a8:e0:
                    51:60:91:41:02:1f:97:a6:85:b6:47:e5:34:60:9b:
                    db:ec:b0:6a:14:f2:22:7c:49:fb:d5:ae:5e:50:2f:
                    66:a7:1f:8f:3a:40:eb:fc:8e:85:47:d1:96:5c:7e:
                    b0:fc:64:5e:78:2d:ba:db:fb:2f:04:40:a3:99:8d:
                    d6:b3:29:a9:9b:03:7b:47:84:dd:d5:13:b8:01:a1:
                    5d:a2:40:ae:5d:4b:48:99:4f:00:b1:19:e4:5f:05:
                    f8:e1
                Exponent: 65537 (0x10001)
        X509v3 extensions:
            X509v3 Key Usage: critical
                Digital Signature, Key Encipherment, Key Agreement
            X509v3 Extended Key Usage: 
                TLS Web Server Authentication
            X509v3 Subject Key Identifier: 
                64:78:72:6E:73:27:B6:79:3B:18:D6:35:78:2B:F6:40:00:E1:31:BD
            X509v3 Authority Key Identifier: 
                6F:30:7F:55:94:88:43:58:F1:A6:BE:E3:38:AD:7E:15:24:FD:0A:AA
    Signature Algorithm: sha256WithRSAEncryption
    Signature Value:
        a4:14:53:e1:05:af:f8:5a:dd:ab:ab:56:62:f7:b4:09:af:3f:
        d9:f7:a7:37:74:32:ca:2c:5f:66:77:52:5d:dc:07:76:be:84:
        e6:6f:3d:8c:b4:5b:0b:83:5b:63:84:75:d5:c0:83:17:e1:2c:
        5d:74:32:e8:0d:09:cb:5d:c7:2d:e8:9c:41:96:d5:54:63:c8:
        e3:7b:ed:10:39:28:83:a2:44:7c:b9:8f:91:f2:0e:25:43:73:
        bd:6e:dd:cd:80:8b:16:6e:ac:81:b2:66:27:72:2c:67:fc:74:
        3b:10:28:88:3a:d6:23:14:f8:97:d6:fa:0e:85:3d:ec:b4:c8:
        a2:04:6d:51:ea:73:2e:dc:1e:df:6f:39:a8:e1:b1:53:fa:f6:
        ea:f8:14:bd:95:e9:e6:30:6b:66:9a:cd:5d:62:52:8b:ae:99:
        a8:55:b9:8d:18:8b:5d:6b:34:00:77:bd:d1:0c:39:1a:46:b4:
        8e:71:43:d3:a5:f7:cb:85:f7:e3:ac:84:0c:0e:8b:60:b5:9b:
        98:f6:c2:9b:01:36:eb:e1:70:65:5f:02:1e:e7:04:57:bc:7c:
        66:80:bd:ef:a5:05:f3:3b:c7:81:08:a3:74:1e:58:b5:9e:4e:
        27:93:c8:c9:09:a4:a6:a6:0a:62:4c:4d:c7:bf:4b:b3:93:81:
        48:c7:07:4f
-----BEGIN CERTIFICATE-----
MIIDCzCCAfOgAwIBAgIBAjANBgkqhkiG9w0BAQsFADAVMRMwEQYDVQQKDApFeGFt
cGxlIENBMB4XDTI0MTIyNDE0MjUwOFoXDTI1MTIyNDE0MjUwOFowFDESMBAGA1UE
AwwJbG9jYWxob3N0MIIBIjANBgkqhkiG9w0BAQEFAAOCAQ8AMIIBCgKCAQEArder
JneOKhSm4QyJgEn0YrX3Wx3HP10sfaFAnzwolssJMO6yL+/K2isUGqoKLfJQeCQ0
G4hd1ANzMPP3bF1Q4uWyqyRpI2+wWJLxI2D6A4jIultdFNcDtyXcJx0SISss+TJb
JMN5+xqad0Q7a9I54/8+y3twICh7ctbdRccq7XGYAmlwoVw1iBbSUPXiBTvNHip7
hsofBoClTDLd6epXfYNuqOBRYJFBAh+XpoW2R+U0YJvb7LBqFPIifEn71a5eUC9m
px+POkDr/I6FR9GWXH6w/GReeC262/svBECjmY3WsympmwN7R4Td1RO4AaFdokCu
XUtImU8AsRnkXwX44QIDAQABo2cwZTAOBgNVHQ8BAf8EBAMCA6gwEwYDVR0lBAww
CgYIKwYBBQUHAwEwHQYDVR0OBBYEFGR4cm5zJ7Z5OxjWNXgr9kAA4TG9MB8GA1Ud
IwQYMBaAFG8wf1WUiENY8aa+4zitfhUk/QqqMA0GCSqGSIb3DQEBCwUAA4IBAQCk
FFPhBa/4Wt2rq1Zi97QJrz/Z96c3dDLKLF9md1Jd3Ad2voTmbz2MtFsLg1tjhHXV
wIMX4SxddDLoDQnLXcct6JxBltVUY8jje+0QOSiDokR8uY+R8g4lQ3O9bt3NgIsW
bqyBsmYncixn/HQ7ECiIOtYjFPiX1voOhT3stMiiBG1R6nMu3B7fbzmo4bFT+vbq
+BS9lenmMGtmms1dYlKLrpmoVbmNGItdazQAd73RDDkaRrSOcUPTpffLhffjrIQM
DotgtZuY9sKbATbr4XBlXwIe5wRXvHxmgL3vpQXzO8eBCKN0Hli1nk4nk8jJCaSm
pgpiTE3Hv0uzk4FIxwdP
-----END CERTIFICATE-----
