Certificate:
    Data:
        Version: 3 (0x2)
        Serial Number: 2 (0x2)
        Signature Algorithm: rsassaPss        
        Hash Algorithm: sha256
        Mask Algorithm: mgf1 with sha256
         Salt Length: 0xDE
        Trailer Field: 0x01 (default)
        Issuer: O=Example CA
        Validity
            Not Before: Dec 24 14:25:08 2024 GMT
            Not After : Dec 24 14:25:08 2025 GMT
        Subject: CN=localhost
        Subject Public Key Info:
            Public Key Algorithm: rsassaPss
                Public-Key: (2048 bit)
                Modulus:
                    00:c2:16:77:c7:8b:2a:2f:0c:20:16:c7:a7:3d:c3:
                    a4:f1:78:8f:a1:9c:bd:0f:5b:cd:50:0b:18:ac:09:
                    00:e8:b9:1c:98:5d:b7:7c:b0:78:14:d2:12:66:36:
                    4b:16:63:22:9f:ad:e4:17:3c:82:b4:a2:77:fb:81:
                    c3:e4:7d:7f:00:fb:b6:5f:cc:c2:bc:0c:36:bf:51:
                    74:63:bf:6d:ad:be:59:4e:27:e9:07:fb:83:28:72:
                    1a:ba:12:5d:7f:ab:13:09:3e:63:18:fd:02:c8:42:
                    01:96:ba:6b:c5:09:5d:bb:f1:67:86:5e:62:a0:34:
                    b4:03:ec:58:8f:33:51:2b:c1:3c:32:57:b4:cd:cb:
                    1d:65:79:dc:c1:2e:ac:2f:63:72:97:a7:4c:8a:3c:
                    dc:c9:13:84:16:3a:bf:d1:9a:37:98:6f:ec:4f:98:
                    4d:b1:fa:01:89:68:e6:2d:e7:a0:77:f5:55:e9:80:
                    90:a5:a6:62:8d:ec:61:e9:9c:2d:b3:d2:5d:72:09:
                    5c:d4:40:e0:02:d9:c0:37:57:15:6c:60:c3:fa:7c:
                    00:91:ed:7d:98:bd:72:84:c2:92:be:15:9a:1e:10:
                    e5:27:10:7b:3f:6d:a8:87:a8:ff:92:34:4c:f3:3d:
                    6d:41:90:e1:b3:90:70:89:bd:f4:a6:ba:70:4d:b8:
                    5b:03
                Exponent: 65537 (0x10001)
                No PSS parameter restrictions
        X509v3 extensions:
            X509v3 Key Usage: critical
                Digital Signature, Key Encipherment, Key Agreement
            X509v3 Extended Key Usage: 
                TLS Web Server Authentication
            X509v3 Subject Key Identifier: 
                EA:E9:75:E2:D1:33:3D:C4:CE:75:9A:13:61:68:7F:44:EB:0C:36:00
            X509v3 Authority Key Identifier: 
                4E:E7:54:31:FD:F3:13:58:D1:0D:99:D8:DC:8A:5C:39:ED:57:8C:DA
    Signature Algorithm: rsassaPss
    Signature Value:        
        Hash Algorithm: sha256
        Mask Algorithm: mgf1 with sha256
         Salt Length: 0xDE
        Trailer Field: 0x01 (default)
        92:94:63:71:83:6b:d2:49:ec:88:38:56:82:e8:2a:a9:59:83:
        25:62:8d:c6:a6:d4:fc:69:ea:e5:48:38:be:09:ee:93:a6:ad:
        2a:e0:f2:1d:1e:c6:72:c8:15:8f:53:27:4f:58:ed:b8:1f:74:
        5f:ca:c1:c9:72:6d:62:db:38:16:8f:a1:60:f5:15:6f:05:0f:
        61:30:3d:5e:24:c9:99:d5:c5:5d:a9:eb:3d:f0:c3:ae:b2:ec:
        f7:d3:f4:ea:f8:81:a6:cb:4c:a2:b7:fd:a2:6e:0a:35:5f:ef:
        4b:b2:dc:86:47:9e:2f:19:76:42:5e:dd:27:99:e4:af:fd:3b:
        5b:b6:41:7c:f1:66:5c:c4:82:60:c6:a9:bb:d0:1d:c9:dd:ce:
        09:78:4e:b9:a7:4b:72:ea:c3:4f:d1:2b:a8:06:71:c4:50:d0:
        0b:7b:b3:0a:12:48:99:e3:be:d1:d8:35:73:67:01:3f:5d:c1:
        09:28:15:26:a8:a8:ed:c4:d9:44:cf:bb:9f:62:fe:48:25:71:
        f1:e0:ec:33:2e:3f:0e:2c:6e:d1:f4:75:08:d0:b9:b5:04:a4:
        f2:60:f9:70:81:d6:4b:5c:53:b8:7e:a3:4d:99:89:25:38:4b:
        4a:f9:e6:54:ab:5b:b2:9b:3d:97:37:c1:46:bb:16:b8:81:29:
        32:b5:db:d4
-----BEGIN CERTIFICATE-----
MIIDczCCAiagAwIBAgIBAjBCBgkqhkiG9w0BAQowNaAPMA0GCWCGSAFlAwQCAQUA
oRwwGgYJKoZIhvcNAQEIMA0GCWCGSAFlAwQCAQUAogQCAgDeMBUxEzARBgNVBAoM
CkV4YW1wbGUgQ0EwHhcNMjQxMjI0MTQyNTA4WhcNMjUxMjI0MTQyNTA4WjAUMRIw
EAYDVQQDDAlsb2NhbGhvc3QwggEgMAsGCSqGSIb3DQEBCgOCAQ8AMIIBCgKCAQEA
whZ3x4sqLwwgFsenPcOk8XiPoZy9D1vNUAsYrAkA6LkcmF23fLB4FNISZjZLFmMi
n63kFzyCtKJ3+4HD5H1/APu2X8zCvAw2v1F0Y79trb5ZTifpB/uDKHIauhJdf6sT
CT5jGP0CyEIBlrprxQldu/Fnhl5ioDS0A+xYjzNRK8E8Mle0zcsdZXncwS6sL2Ny
l6dMijzcyROEFjq/0Zo3mG/sT5hNsfoBiWjmLeegd/VV6YCQpaZijexh6Zwts9Jd
cglc1EDgAtnAN1cVbGDD+nwAke19mL1yhMKSvhWaHhDlJxB7P22oh6j/kjRM8z1t
QZDhs5Bwib30prpwTbhbAwIDAQABo2cwZTAOBgNVHQ8BAf8EBAMCA6gwEwYDVR0l
BAwwCgYIKwYBBQUHAwEwHQYDVR0OBBYEFOrpdeLRMz3EznWaE2Fof0TrDDYAMB8G
A1UdIwQYMBaAFE7nVDH98xNY0Q2Z2NyKXDntV4zaMEIGCSqGSIb3DQEBCjA1oA8w
DQYJYIZIAWUDBAIBBQChHDAaBgkqhkiG9w0BAQgwDQYJYIZIAWUDBAIBBQCiBAIC
AN4DggEBAJKUY3GDa9JJ7Ig4VoLoKqlZgyVijcam1Pxp6uVIOL4J7pOmrSrg8h0e
xnLIFY9TJ09Y7bgfdF/KwclybWLbOBaPoWD1FW8FD2EwPV4kyZnVxV2p6z3ww66y
7PfT9Or4gabLTKK3/aJuCjVf70uy3IZHni8ZdkJe3SeZ5K/9O1u2QXzxZlzEgmDG
qbvQHcndzgl4TrmnS3Lqw0/RK6gGccRQ0At7swoSSJnjvtHYNXNnAT9dwQkoFSao
qO3E2UTPu59i/kglcfHg7DMuPw4sbtH0dQjQubUEpPJg+XCB1ktcU7h+o02ZiSU4
S0r55lSrW7KbPZc3wUa7FriBKTK129Q=
-----END CERTIFICATE-----
