Certificate:
    Data:
        Version: 3 (0x2)
        Serial Number: 3 (0x3)
        Signature Algorithm: sha256WithRSAEncryption
        Issuer: O=Example CA
        Validity
            Not Before: Dec 24 14:25:08 2024 GMT
            Not After : Dec 24 14:25:08 2025 GMT
        Subject: CN=John Smith
        Subject Public Key Info:
            Public Key Algorithm: rsaEncryption
                Public-Key: (2048 bit)
                Modulus:
                    00:f1:87:67:9b:7a:52:e6:42:98:73:bf:e6:13:f6:
                    2b:ec:6c:09:f4:3c:e5:91:b1:1c:4a:42:e8:fd:71:
                    e3:2c:cb:8c:6e:2b:3c:e2:67:86:41:4d:6b:96:26:
                    f7:31:2e:ce:37:17:00:4d:ba:c6:27:5b:5e:33:65:
                    95:73:b7:b3:d5:5a:d1:c4:b4:19:2e:7d:69:16:be:
                    47:ca:6d:ee:d1:01:85:b4:17:9c:e6:94:fa:0b:32:
                    e1:8c:b8:7e:a4:35:cf:73:10:ad:00:f5:ac:72:db:
                    1b:7c:d0:1f:bc:cf:b0:e2:7a:71:89:b7:0c:7c:a6:
                    7b:63:57:f2:d9:1e:d2:ca:c9:47:47:93:fb:ba:53:
                    43:33:6d:25:4f:0d:8d:8e:ec:40:28:1f:91:10:d3:
                    b7:87:38:a0:95:ee:4e:d3:bd:0c:1b:b2:07:d3:50:
                    de:44:9b:14:35:7b:0e:dc:4f:4c:72:fc:57:f7:77:
                    3d:6b:8c:c4:5f:0b:01:ed:5a:51:45:45:00:18:44:
                    3a:6f:0a:35:82:d1:0e:90:2e:8f:7f:bd:0e:a2:db:
                    c8:10:95:f1:48:74:30:96:84:fb:0b:64:43:70:64:
                    35:82:e3:db:26:8a:5b:01:56:b5:e0:fb:03:a6:43:
                    bf:97:d2:6b:71:6c:c9:5e:ef:87:58:e6:70:97:c6:
                    43:43
                Exponent: 65537 (0x10001)
        X509v3 extensions:
            X509v3 Key Usage: 
                Digital Signature, Key Encipherment
            X509v3 Extended Key Usage: 
                TLS Web Client Authentication, E-mail Protection
            X509v3 Subject Key Identifier: 
                55:34:77:15:F1:E5:AF:F8:C0:BC:E8:0A:F8:AE:AB:15:F0:AD:A1:04
            X509v3 Authority Key Identifier: 
                6F:30:7F:55:94:88:43:58:F1:A6:BE:E3:38:AD:7E:15:24:FD:0A:AA
    Signature Algorithm: sha256WithRSAEncryption
    Signature Value:
        bd:d8:62:f1:21:9b:46:23:cc:6f:05:3b:c5:58:ac:b0:00:0f:
        97:64:fb:75:b8:12:c8:1d:d1:0d:e8:d5:87:01:8d:8f:14:d9:
        1c:86:12:ee:6d:82:f4:f7:0d:06:37:6c:e0:a9:d0:b9:d7:23:
        d4:d8:f6:ec:49:58:d0:6f:72:c4:75:27:1e:5b:ec:ff:79:42:
        6d:c5:b5:4f:34:d0:af:d2:2e:80:5d:b5:f1:f4:a6:cc:f9:ef:
        c9:52:17:9b:22:c0:d4:87:60:14:10:55:d8:3f:09:80:f9:f2:
        13:6e:fd:2d:82:c3:fe:af:50:eb:22:c4:d9:9c:25:aa:82:e5:
        06:f1:2d:34:69:16:0a:9e:7f:17:62:3b:2f:bc:fb:45:4b:94:
        b7:11:39:10:99:59:ed:f3:1a:ec:4c:31:cd:5a:da:03:c7:98:
        8d:7f:4d:ad:bf:d6:96:ec:e7:58:2c:c4:15:f2:87:a1:dc:a7:
        3a:dc:11:d3:b3:40:76:c7:64:35:9e:53:e6:29:10:1b:cc:75:
        b6:b3:48:70:68:f6:d3:57:81:20:bc:d1:bb:21:f9:d5:5d:21:
        64:b7:fd:ce:42:a5:ed:b5:da:68:c2:9f:6b:ea:9c:9c:6a:38:
        1b:1b:5f:c6:9e:60:5d:90:fd:53:85:8f:55:69:6e:d2:27:00:
        d8:99:b3:74
-----BEGIN CERTIFICATE-----
MIIDEzCCAfugAwIBAgIBAzANBgkqhkiG9w0BAQsFADAVMRMwEQYDVQQKDApFeGFt
cGxlIENBMB4XDTI0MTIyNDE0MjUwOFoXDTI1MTIyNDE0MjUwOFowFTETMBEGA1UE
AwwKSm9obiBTbWl0aDCCASIwDQYJKoZIhvcNAQEBBQADggEPADCCAQoCggEBAPGH
Z5t6UuZCmHO/5hP2K+xsCfQ85ZGxHEpC6P1x4yzLjG4rPOJnhkFNa5Ym9zEuzjcX
AE26xidbXjNllXO3s9Va0cS0GS59aRa+R8pt7tEBhbQXnOaU+gsy4Yy4fqQ1z3MQ
rQD1rHLbG3zQH7zPsOJ6cYm3DHyme2NX8tke0srJR0eT+7pTQzNtJU8NjY7sQCgf
kRDTt4c4oJXuTtO9DBuyB9NQ3kSbFDV7DtxPTHL8V/d3PWuMxF8LAe1aUUVFABhE
Om8KNYLRDpAuj3+9DqLbyBCV8Uh0MJaE+wtkQ3BkNYLj2yaKWwFWteD7A6ZDv5fS
a3FsyV7vh1jmcJfGQ0MCAwEAAaNuMGwwCwYDVR0PBAQDAgWgMB0GA1UdJQQWMBQG
CCsGAQUFBwMCBggrBgEFBQcDBDAdBgNVHQ4EFgQUVTR3FfHlr/jAvOgK+K6rFfCt
oQQwHwYDVR0jBBgwFoAUbzB/VZSIQ1jxpr7jOK1+FST9CqowDQYJKoZIhvcNAQEL
BQADggEBAL3YYvEhm0YjzG8FO8VYrLAAD5dk+3W4Esgd0Q3o1YcBjY8U2RyGEu5t
gvT3DQY3bOCp0LnXI9TY9uxJWNBvcsR1Jx5b7P95Qm3FtU800K/SLoBdtfH0psz5
78lSF5siwNSHYBQQVdg/CYD58hNu/S2Cw/6vUOsixNmcJaqC5QbxLTRpFgqefxdi
Oy+8+0VLlLcRORCZWe3zGuxMMc1a2gPHmI1/Ta2/1pbs51gsxBXyh6HcpzrcEdOz
QHbHZDWeU+YpEBvMdbazSHBo9tNXgSC80bsh+dVdIWS3/c5Cpe212mjCn2vqnJxq
OBsbX8aeYF2Q/VOFj1VpbtInANiZs3Q=
-----END CERTIFICATE-----
