Certificate:
    Data:
        Version: 3 (0x2)
        Serial Number: 3 (0x3)
        Signature Algorithm: ecdsa-with-SHA256
        Issuer: O=Example CA
        Validity
            Not Before: Dec 24 14:25:11 2024 GMT
            Not After : Dec 24 14:25:11 2025 GMT
        Subject: CN=John Smith
        Subject Public Key Info:
            Public Key Algorithm: id-ecPublicKey
                Public-Key: (521 bit)
                pub:
                    04:01:7f:d8:b7:cc:12:b0:a6:a4:6e:0a:05:52:86:
                    0b:07:09:3b:c7:f5:53:4d:eb:68:26:5b:ff:2d:00:
                    f3:db:fe:c3:be:5d:d0:a3:18:37:5d:7b:56:90:58:
                    a2:8f:05:e4:85:d7:68:3a:b4:4b:6e:3e:3b:73:41:
                    27:23:0e:7b:f8:fa:c0:01:ff:fb:51:70:46:fc:cd:
                    50:d3:19:f1:0f:66:25:06:c5:c3:2a:4e:5c:4d:fb:
                    fd:b7:10:52:4c:43:1b:ea:2d:bc:3b:c3:bb:37:6e:
                    c9:c4:a2:21:5a:06:ea:d2:8f:df:70:5d:dd:a8:97:
                    3f:f1:ea:5c:21:ca:ee:d6:b4:82:d7:e4:1e
                ASN1 OID: secp521r1
                NIST CURVE: P-521
        X509v3 extensions:
            X509v3 Key Usage: 
                Digital Signature, Key Encipherment
            X509v3 Extended Key Usage: 
                TLS Web Client Authentication, E-mail Protection
            X509v3 Subject Key Identifier: 
                8F:66:70:A1:09:19:63:B1:E7:66:42:98:1D:42:9E:59:AA:83:A3:08
            X509v3 Authority Key Identifier: 
                31:43:6B:7C:EF:4E:96:F4:12:20:C2:4C:BD:A0:16:DE:1B:0F:C9:2B
    Signature Algorithm: ecdsa-with-SHA256
    Signature Value:
        30:81:87:02:41:0f:d6:a3:55:1c:0b:a2:a7:0c:fc:fe:95:b9:
        21:dc:7a:78:77:ff:c4:34:ce:f0:58:69:2a:88:bc:fa:dd:f4:
        ec:cc:ac:64:a4:58:15:d8:b4:0d:dc:00:e5:81:5d:83:e3:b4:
        21:2d:04:39:a7:e6:8e:fb:2c:38:3b:c7:d7:79:46:95:02:42:
        00:d4:56:68:c0:13:69:e6:56:77:a0:98:9e:6d:33:a5:42:56:
        b1:b0:76:8a:78:cf:23:a3:5a:a2:1f:70:7c:0a:71:c3:9e:02:
        38:05:92:e8:07:0e:03:f5:a8:fc:26:84:a5:3c:37:89:c3:c9:
        71:67:d0:ed:a6:26:bb:a6:d9:32:d7:3c
-----BEGIN CERTIFICATE-----
MIICDjCCAXCgAwIBAgIBAzAKBggqhkjOPQQDAjAVMRMwEQYDVQQKDApFeGFtcGxl
IENBMB4XDTI0MTIyNDE0MjUxMVoXDTI1MTIyNDE0MjUxMVowFTETMBEGA1UEAwwK
Sm9obiBTbWl0aDCBmzAQBgcqhkjOPQIBBgUrgQQAIwOBhgAEAX/Yt8wSsKakbgoF
UoYLBwk7x/VTTetoJlv/LQDz2/7Dvl3Qoxg3XXtWkFiijwXkhddoOrRLbj47c0En
Iw57+PrAAf/7UXBG/M1Q0xnxD2YlBsXDKk5cTfv9txBSTEMb6i28O8O7N27JxKIh
Wgbq0o/fcF3dqJc/8epcIcru1rSC1+Qeo24wbDALBgNVHQ8EBAMCBaAwHQYDVR0l
BBYwFAYIKwYBBQUHAwIGCCsGAQUFBwMEMB0GA1UdDgQWBBSPZnChCRljsedmQpgd
Qp5ZqoOjCDAfBgNVHSMEGDAWgBQxQ2t8706W9BIgwky9oBbeGw/JKzAKBggqhkjO
PQQDAgOBiwAwgYcCQQ/Wo1UcC6KnDPz+lbkh3Hp4d//ENM7wWGkqiLz63fTszKxk
pFgV2LQN3ADlgV2D47QhLQQ5p+aO+yw4O8fXeUaVAkIA1FZowBNp5lZ3oJiebTOl
QlaxsHaKeM8jo1qiH3B8CnHDngI4BZLoBw4D9aj8JoSlPDeJw8lxZ9Dtpia7ptky
1zw=
-----END CERTIFICATE-----
