Certificate:
    Data:
        Version: 3 (0x2)
        Serial Number: 3 (0x3)
        Signature Algorithm: ecdsa-with-SHA256
        Issuer: O=Example CA
        Validity
            Not Before: Dec 24 14:25:10 2024 GMT
            Not After : Dec 24 14:25:10 2025 GMT
        Subject: CN=John Smith
        Subject Public Key Info:
            Public Key Algorithm: id-ecPublicKey
                Public-Key: (384 bit)
                pub:
                    04:38:02:a3:88:0a:e5:0d:45:38:e4:ec:b9:9e:4d:
                    7c:88:51:fb:60:ca:ef:ba:bc:fd:fb:66:59:f0:ca:
                    1c:2e:bc:f6:df:f8:7d:a5:e4:37:e5:86:ab:e2:dc:
                    7d:85:f4:cf:52:0c:89:0b:30:4f:9d:61:54:89:da:
                    63:3a:b3:c6:7b:b2:f9:05:6a:92:f8:aa:43:df:b5:
                    52:b3:1d:5b:22:b9:c7:99:73:6a:aa:80:12:5d:ec:
                    77:1e:b6:b0:33:90:4a
                ASN1 OID: secp384r1
                NIST CURVE: P-384
        X509v3 extensions:
            X509v3 Key Usage: 
                Digital Signature, Key Encipherment
            X509v3 Extended Key Usage: 
                TLS Web Client Authentication, E-mail Protection
            X509v3 Subject Key Identifier: 
                96:A9:E3:D4:FE:49:C0:1E:F0:CC:45:11:36:47:5C:6D:84:79:5A:F6
            X509v3 Authority Key Identifier: 
                7C:49:42:95:D8:D3:F2:41:CA:45:6F:0C:46:76:A2:83:7F:9A:15:48
    Signature Algorithm: ecdsa-with-SHA256
    Signature Value:
        30:65:02:31:00:f4:b4:bc:63:3d:75:b7:b5:d7:60:9a:fe:7e:
        3e:f4:12:8d:15:74:34:c4:10:56:6d:3b:88:eb:e3:68:11:ec:
        c5:4c:d1:93:75:07:80:58:13:ba:9d:dc:69:32:26:f9:92:02:
        30:71:e6:49:af:75:1c:54:25:c5:7a:0e:d6:9a:c3:10:93:bb:
        06:45:05:5a:3b:12:99:c8:42:aa:48:80:d8:ea:40:64:ee:4b:
        cf:19:24:f9:4d:ec:f1:dc:86:1d:73:17:6b
-----BEGIN CERTIFICATE-----
MIIBxDCCAUqgAwIBAgIBAzAKBggqhkjOPQQDAjAVMRMwEQYDVQQKDApFeGFtcGxl
IENBMB4XDTI0MTIyNDE0MjUxMFoXDTI1MTIyNDE0MjUxMFowFTETMBEGA1UEAwwK
Sm9obiBTbWl0aDB2MBAGByqGSM49AgEGBSuBBAAiA2IABDgCo4gK5Q1FOOTsuZ5N
fIhR+2DK77q8/ftmWfDKHC689t/4faXkN+WGq+LcfYX0z1IMiQswT51hVInaYzqz
xnuy+QVqkviqQ9+1UrMdWyK5x5lzaqqAEl3sdx62sDOQSqNuMGwwCwYDVR0PBAQD
AgWgMB0GA1UdJQQWMBQGCCsGAQUFBwMCBggrBgEFBQcDBDAdBgNVHQ4EFgQUlqnj
1P5JwB7wzEURNkdcbYR5WvYwHwYDVR0jBBgwFoAUfElCldjT8kHKRW8MRnaig3+a
FUgwCgYIKoZIzj0EAwIDaAAwZQIxAPS0vGM9dbe112Ca/n4+9BKNFXQ0xBBWbTuI
6+NoEezFTNGTdQeAWBO6ndxpMib5kgIwceZJr3UcVCXFeg7WmsMQk7sGRQVaOxKZ
yEKqSIDY6kBk7kvPGST5Tezx3IYdcxdr
-----END CERTIFICATE-----
