Certificate:
    Data:
        Version: 3 (0x2)
        Serial Number: 2 (0x2)
        Signature Algorithm: ecdsa-with-SHA256
        Issuer: O=Example CA
        Validity
            Not Before: Dec 24 14:25:10 2024 GMT
            Not After : Dec 24 14:25:10 2025 GMT
        Subject: CN=localhost
        Subject Public Key Info:
            Public Key Algorithm: id-ecPublicKey
                Public-Key: (256 bit)
                pub:
                    04:b5:e2:71:74:52:66:f9:8a:49:bf:b5:84:35:43:
                    da:a8:66:89:16:34:9a:48:4c:b8:cb:de:38:36:1a:
                    c7:b6:55:60:01:d2:9a:24:d2:01:28:80:98:d5:7d:
                    b5:19:8b:d5:d6:d7:75:4e:56:93:73:b1:ef:ca:6e:
                    cb:05:4c:64:6f
                ASN1 OID: prime256v1
                NIST CURVE: P-256
        X509v3 extensions:
            X509v3 Key Usage: critical
                Digital Signature, Key Encipherment, Key Agreement
            X509v3 Extended Key Usage: 
                TLS Web Server Authentication
            X509v3 Subject Key Identifier: 
                F5:D6:91:C6:39:6A:44:59:8B:BC:88:7D:8B:13:70:A1:CD:4D:99:46
            X509v3 Authority Key Identifier: 
                E0:11:AA:84:1C:27:3D:C3:23:34:49:20:BE:6C:94:3C:E3:4D:99:8D
    Signature Algorithm: ecdsa-with-SHA256
    Signature Value:
        30:44:02:20:4f:aa:6e:49:6a:1e:a7:88:23:15:18:c7:99:7e:
        8e:1f:6c:42:97:71:d3:05:33:7a:97:d8:79:81:d9:29:cb:9b:
        02:20:53:bb:5c:4f:70:11:26:ac:a1:54:e2:66:84:84:53:67:
        b6:e6:bd:e7:9c:7d:49:78:8a:64:d3:50:11:2b:dd:68
-----BEGIN CERTIFICATE-----
MIIBfjCCASWgAwIBAgIBAjAKBggqhkjOPQQDAjAVMRMwEQYDVQQKDApFeGFtcGxl
IENBMB4XDTI0MTIyNDE0MjUxMFoXDTI1MTIyNDE0MjUxMFowFDESMBAGA1UEAwwJ
bG9jYWxob3N0MFkwEwYHKoZIzj0CAQYIKoZIzj0DAQcDQgAEteJxdFJm+YpJv7WE
NUPaqGaJFjSaSEy4y944NhrHtlVgAdKaJNIBKICY1X21GYvV1td1TlaTc7Hvym7L
BUxkb6NnMGUwDgYDVR0PAQH/BAQDAgOoMBMGA1UdJQQMMAoGCCsGAQUFBwMBMB0G
A1UdDgQWBBT11pHGOWpEWYu8iH2LE3ChzU2ZRjAfBgNVHSMEGDAWgBTgEaqEHCc9
wyM0SSC+bJQ8402ZjTAKBggqhkjOPQQDAgNHADBEAiBPqm5Jah6niCMVGMeZfo4f
bEKXcdMFM3qX2HmB2SnLmwIgU7tcT3ARJqyhVOJmhIRTZ7bmveecfUl4imTTUBEr
3Wg=
-----END CERTIFICATE-----
