Certificate:
    Data:
        Version: 3 (0x2)
        Serial Number: 1 (0x1)
        Signature Algorithm: ecdsa-with-SHA256
        Issuer: O=Example CA
        Validity
            Not Before: Dec 24 14:25:10 2019 GMT
            Not After : Dec 24 14:25:10 2034 GMT
        Subject: O=Example CA
        Subject Public Key Info:
            Public Key Algorithm: id-ecPublicKey
                Public-Key: (384 bit)
                pub:
                    04:ab:85:82:71:de:a1:40:a8:6c:a4:c3:9c:d9:33:
                    ac:5e:65:b3:74:43:f6:64:80:0d:1b:e7:70:2c:87:
                    2a:3f:d0:33:3e:fc:56:77:e7:37:b8:bb:b7:f6:c6:
                    7c:f0:f8:f8:28:6e:dc:6a:f4:a0:cb:dd:e3:68:c4:
                    88:87:b7:3d:06:31:b8:ce:06:31:3d:ed:77:31:b0:
                    36:a9:2b:78:29:6c:59:c8:f0:66:b8:19:30:9e:32:
                    3a:6c:d6:b1:c5:17:9a
                ASN1 OID: secp384r1
                NIST CURVE: P-384
        X509v3 extensions:
            X509v3 Basic Constraints: critical
                CA:TRUE
            X509v3 Key Usage: critical
                Certificate Sign, CRL Sign
            X509v3 Subject Key Identifier: 
                7C:49:42:95:D8:D3:F2:41:CA:45:6F:0C:46:76:A2:83:7F:9A:15:48
            X509v3 Authority Key Identifier: 
                7C:49:42:95:D8:D3:F2:41:CA:45:6F:0C:46:76:A2:83:7F:9A:15:48
    Signature Algorithm: ecdsa-with-SHA256
    Signature Value:
        30:65:02:30:28:13:23:49:6f:62:05:0c:eb:fd:21:c5:d2:61:
        79:cb:70:aa:b9:74:bc:c6:a9:26:12:fc:4c:53:05:6f:2a:98:
        39:de:99:4e:84:3b:51:ed:17:a2:5b:29:4f:ea:bf:80:02:31:
        00:9c:89:2a:63:cb:a6:a1:7e:ed:40:c6:58:48:a5:9e:f9:db:
        2a:9a:cd:48:60:ad:79:ce:d7:48:e4:75:59:4a:c2:8d:84:3e:
        33:21:8e:ee:13:c1:8b:3c:30:fc:10:9b:58
-----BEGIN CERTIFICATE-----
MIIBuTCCAT+gAwIBAgIBATAKBggqhkjOPQQDAjAVMRMwEQYDVQQKDApFeGFtcGxl
IENBMB4XDTE5MTIyNDE0MjUxMFoXDTM0MTIyNDE0MjUxMFowFTETMBEGA1UECgwK
RXhhbXBsZSBDQTB2MBAGByqGSM49AgEGBSuBBAAiA2IABKuFgnHeoUCobKTDnNkz
rF5ls3RD9mSADRvncCyHKj/QMz78VnfnN7i7t/bGfPD4+Chu3Gr0oMvd42jEiIe3
PQYxuM4GMT3tdzGwNqkreClsWcjwZrgZMJ4yOmzWscUXmqNjMGEwDwYDVR0TAQH/
BAUwAwEB/zAOBgNVHQ8BAf8EBAMCAQYwHQYDVR0OBBYEFHxJQpXY0/JBykVvDEZ2
ooN/mhVIMB8GA1UdIwQYMBaAFHxJQpXY0/JBykVvDEZ2ooN/mhVIMAoGCCqGSM49
BAMCA2gAMGUCMCgTI0lvYgUM6/0hxdJhectwqrl0vMapJhL8TFMFbyqYOd6ZToQ7
Ue0XolspT+q/gAIxAJyJKmPLpqF+7UDGWEilnvnbKprNSGCtec7XSOR1WUrCjYQ+
MyGO7hPBizww/BCbWA==
-----END CERTIFICATE-----
