Certificate:
    Data:
        Version: 3 (0x2)
        Serial Number: 1 (0x1)
        Signature Algorithm: ecdsa-with-SHA256
        Issuer: O=Example CA
        Validity
            Not Before: Dec 24 14:25:10 2019 GMT
            Not After : Dec 24 14:25:10 2034 GMT
        Subject: O=Example CA
        Subject Public Key Info:
            Public Key Algorithm: id-ecPublicKey
                Public-Key: (256 bit)
                pub:
                    04:23:d4:7e:5b:2a:06:08:a6:2f:5f:13:db:d9:e9:
                    51:35:9b:ba:94:4f:48:3f:88:45:d9:12:f6:66:83:
                    9e:7b:43:76:3d:08:9e:f0:7a:eb:18:40:e5:0a:a6:
                    d2:c2:79:b4:f1:cc:e3:8a:64:e7:23:57:f1:5b:ba:
                    a0:be:a8:55:d8
                ASN1 OID: prime256v1
                NIST CURVE: P-256
        X509v3 extensions:
            X509v3 Basic Constraints: critical
                CA:TRUE
            X509v3 Key Usage: critical
                Certificate Sign, CRL Sign
            X509v3 Subject Key Identifier: 
                E0:11:AA:84:1C:27:3D:C3:23:34:49:20:BE:6C:94:3C:E3:4D:99:8D
            X509v3 Authority Key Identifier: 
                E0:11:AA:84:1C:27:3D:C3:23:34:49:20:BE:6C:94:3C:E3:4D:99:8D
    Signature Algorithm: ecdsa-with-SHA256
    Signature Value:
        30:45:02:20:22:19:3b:af:46:54:10:c8:1f:d6:44:c0:ab:6b:
        aa:ab:62:05:2e:d8:8d:7f:5a:60:c5:6b:41:a5:62:d7:09:c4:
        02:21:00:d1:3b:d8:17:1e:ba:32:b7:5d:f7:18:3e:6c:ef:d0:
        35:a7:0b:55:21:13:2d:59:09:17:8b:e7:8d:d2:ad:21:90
-----BEGIN CERTIFICATE-----
MIIBfDCCASKgAwIBAgIBATAKBggqhkjOPQQDAjAVMRMwEQYDVQQKDApFeGFtcGxl
IENBMB4XDTE5MTIyNDE0MjUxMFoXDTM0MTIyNDE0MjUxMFowFTETMBEGA1UECgwK
RXhhbXBsZSBDQTBZMBMGByqGSM49AgEGCCqGSM49AwEHA0IABCPUflsqBgimL18T
29npUTWbupRPSD+IRdkS9maDnntDdj0InvB66xhA5Qqm0sJ5tPHM44pk5yNX8Vu6
oL6oVdijYzBhMA8GA1UdEwEB/wQFMAMBAf8wDgYDVR0PAQH/BAQDAgEGMB0GA1Ud
DgQWBBTgEaqEHCc9wyM0SSC+bJQ8402ZjTAfBgNVHSMEGDAWgBTgEaqEHCc9wyM0
SSC+bJQ8402ZjTAKBggqhkjOPQQDAgNIADBFAiAiGTuvRlQQyB/WRMCra6qrYgUu
2I1/WmDFa0GlYtcJxAIhANE72BceujK3XfcYPmzv0DWnC1UhEy1ZCReL543SrSGQ
-----END CERTIFICATE-----
