Certificate:
    Data:
        Version: 3 (0x2)
        Serial Number: 3 (0x3)
        Signature Algorithm: ecdsa-with-SHA256
        Issuer: O=Example CA
        Validity
            Not Before: Dec 24 14:25:10 2024 GMT
            Not After : Dec 24 14:25:10 2025 GMT
        Subject: CN=John Smith
        Subject Public Key Info:
            Public Key Algorithm: id-ecPublicKey
                Public-Key: (256 bit)
                pub:
                    04:ae:26:3b:9c:f8:5f:1b:88:13:a9:e5:45:33:9f:
                    c5:2a:c7:61:8d:83:f1:36:1d:7b:51:6c:b8:b9:ca:
                    77:9e:6d:18:60:48:6a:cc:a1:9c:26:d2:e1:b2:0a:
                    40:de:cc:13:38:1f:bb:10:ae:54:48:7e:07:7b:a0:
                    cc:66:70:49:24
                ASN1 OID: prime256v1
                NIST CURVE: P-256
        X509v3 extensions:
            X509v3 Key Usage: 
                Digital Signature, Key Encipherment
            X509v3 Extended Key Usage: 
                TLS Web Client Authentication, E-mail Protection
            X509v3 Subject Key Identifier: 
                BC:CD:D9:9E:EC:61:2A:C9:CA:1A:0D:AB:5E:A2:F1:F2:C0:9C:AB:F5
            X509v3 Authority Key Identifier: 
                E0:11:AA:84:1C:27:3D:C3:23:34:49:20:BE:6C:94:3C:E3:4D:99:8D
    Signature Algorithm: ecdsa-with-SHA256
    Signature Value:
        30:45:02:20:77:de:98:13:0c:53:72:e8:d1:ae:21:f7:d5:ca:
        26:16:69:6d:f7:44:ed:77:1d:c9:8f:92:a7:19:66:9c:d0:a1:
        02:21:00:aa:ee:2e:62:ff:b1:ab:be:d9:06:89:24:c8:f1:83:
        d8:69:80:de:10:d9:a8:e9:f9:f4:be:e9:c6:f5:40:a9:fc
-----BEGIN CERTIFICATE-----
MIIBhzCCAS2gAwIBAgIBAzAKBggqhkjOPQQDAjAVMRMwEQYDVQQKDApFeGFtcGxl
IENBMB4XDTI0MTIyNDE0MjUxMFoXDTI1MTIyNDE0MjUxMFowFTETMBEGA1UEAwwK
Sm9obiBTbWl0aDBZMBMGByqGSM49AgEGCCqGSM49AwEHA0IABK4mO5z4XxuIE6nl
RTOfxSrHYY2D8TYde1FsuLnKd55tGGBIasyhnCbS4bIKQN7MEzgfuxCuVEh+B3ug
zGZwSSSjbjBsMAsGA1UdDwQEAwIFoDAdBgNVHSUEFjAUBggrBgEFBQcDAgYIKwYB
BQUHAwQwHQYDVR0OBBYEFLzN2Z7sYSrJyhoNq16i8fLAnKv1MB8GA1UdIwQYMBaA
FOARqoQcJz3DIzRJIL5slDzjTZmNMAoGCCqGSM49BAMCA0gAMEUCIHfemBMMU3Lo
0a4h99XKJhZpbfdE7XcdyY+SpxlmnNChAiEAqu4uYv+xq77ZBokkyPGD2GmA3hDZ
qOn59L7pxvVAqfw=
-----END CERTIFICATE-----
