Certificate:
    Data:
        Version: 3 (0x2)
        Serial Number: 1 (0x1)
        Signature Algorithm: ecdsa-with-SHA256
        Issuer: O=Example CA
        Validity
            Not Before: Dec 24 14:25:11 2019 GMT
            Not After : Dec 24 14:25:11 2034 GMT
        Subject: O=Example CA
        Subject Public Key Info:
            Public Key Algorithm: id-ecPublicKey
                Public-Key: (521 bit)
                pub:
                    04:01:5b:8b:ff:c6:bc:19:6b:ab:7d:e5:ff:c1:39:
                    44:80:6a:50:cb:b7:2a:82:bb:fb:09:28:80:5d:1f:
                    a8:c7:72:a7:51:b5:58:eb:14:b3:15:d8:46:9a:06:
                    37:52:d8:9e:a5:80:45:86:ad:c1:28:57:3d:91:72:
                    2e:b2:fa:e0:2c:85:08:00:d9:18:91:e6:44:e4:03:
                    6b:3e:65:f7:e6:26:f7:70:63:cf:bb:08:77:31:18:
                    d7:37:db:44:a9:cb:c3:c7:75:76:52:34:03:8b:08:
                    de:38:ee:cb:42:ba:d4:46:19:05:b8:bc:d0:59:fc:
                    af:ca:36:b4:1c:24:dd:b9:81:12:42:65:05
                ASN1 OID: secp521r1
                NIST CURVE: P-521
        X509v3 extensions:
            X509v3 Basic Constraints: critical
                CA:TRUE
            X509v3 Key Usage: critical
                Certificate Sign, CRL Sign
            X509v3 Subject Key Identifier: 
                31:43:6B:7C:EF:4E:96:F4:12:20:C2:4C:BD:A0:16:DE:1B:0F:C9:2B
            X509v3 Authority Key Identifier: 
                31:43:6B:7C:EF:4E:96:F4:12:20:C2:4C:BD:A0:16:DE:1B:0F:C9:2B
    Signature Algorithm: ecdsa-with-SHA256
    Signature Value:
        30:81:88:02:42:01:58:c3:c5:22:df:1d:e1:a9:00:57:68:cc:
        14:e6:83:4b:d9:00:46:5a:4b:5d:2e:f0:0a:ec:cf:ee:76:6c:
        e8:87:64:3e:f4:2b:e9:46:ba:6a:37:d9:ab:cc:eb:5f:7e:57:
        3e:ae:c7:f5:3d:68:e3:3d:cb:81:b5:ed:6a:be:57:07:60:02:
        42:01:05:a5:50:91:02:32:d3:54:1b:30:3f:3a:11:51:d6:67:
        d6:64:ac:7e:78:87:4c:b2:e1:a2:aa:f6:81:c0:d1:4d:1e:a6:
        4b:17:75:49:60:03:4c:1e:c3:17:80:99:94:fe:b2:7c:f9:33:
        86:22:71:4b:8c:4f:5e:5e:53:95:f6:2a:d1
-----BEGIN CERTIFICATE-----
MIICBDCCAWWgAwIBAgIBATAKBggqhkjOPQQDAjAVMRMwEQYDVQQKDApFeGFtcGxl
IENBMB4XDTE5MTIyNDE0MjUxMVoXDTM0MTIyNDE0MjUxMVowFTETMBEGA1UECgwK
RXhhbXBsZSBDQTCBmzAQBgcqhkjOPQIBBgUrgQQAIwOBhgAEAVuL/8a8GWurfeX/
wTlEgGpQy7cqgrv7CSiAXR+ox3KnUbVY6xSzFdhGmgY3UtiepYBFhq3BKFc9kXIu
svrgLIUIANkYkeZE5ANrPmX35ib3cGPPuwh3MRjXN9tEqcvDx3V2UjQDiwjeOO7L
QrrURhkFuLzQWfyvyja0HCTduYESQmUFo2MwYTAPBgNVHRMBAf8EBTADAQH/MA4G
A1UdDwEB/wQEAwIBBjAdBgNVHQ4EFgQUMUNrfO9OlvQSIMJMvaAW3hsPySswHwYD
VR0jBBgwFoAUMUNrfO9OlvQSIMJMvaAW3hsPySswCgYIKoZIzj0EAwIDgYwAMIGI
AkIBWMPFIt8d4akAV2jMFOaDS9kARlpLXS7wCuzP7nZs6IdkPvQr6Ua6ajfZq8zr
X35XPq7H9T1o4z3LgbXtar5XB2ACQgEFpVCRAjLTVBswPzoRUdZn1mSsfniHTLLh
oqr2gcDRTR6mSxd1SWADTB7DF4CZlP6yfPkzhiJxS4xPXl5TlfYq0Q==
-----END CERTIFICATE-----
