Certificate:
    Data:
        Version: 3 (0x2)
        Serial Number: 2 (0x2)
        Signature Algorithm: ecdsa-with-SHA256
        Issuer: O=Example CA
        Validity
            Not Before: Dec 24 14:25:11 2024 GMT
            Not After : Dec 24 14:25:11 2025 GMT
        Subject: CN=localhost
        Subject Public Key Info:
            Public Key Algorithm: id-ecPublicKey
                Public-Key: (521 bit)
                pub:
                    04:01:b8:ea:87:0f:3e:05:bc:c7:eb:8f:cc:05:3d:
                    9c:15:3e:e5:ff:c0:3c:c2:47:06:73:0c:c0:a9:80:
                    09:7e:1d:89:69:36:77:ea:19:42:34:32:66:d8:b9:
                    69:b9:8a:af:ef:35:2c:0c:3f:4d:93:e6:b1:cf:a2:
                    4a:78:d5:15:d8:e8:6a:01:73:49:9b:ad:5f:b1:ea:
                    d2:05:c6:a6:4f:11:22:b7:d5:64:0d:f7:08:8c:0a:
                    f5:fd:a7:72:77:0e:07:46:2d:41:50:20:9a:7e:0c:
                    3a:49:c5:c2:c9:43:ca:e0:30:f7:17:04:c7:2d:b6:
                    03:75:ae:02:cc:ee:f8:62:be:71:c7:79:e6
                ASN1 OID: secp521r1
                NIST CURVE: P-521
        X509v3 extensions:
            X509v3 Key Usage: critical
                Digital Signature, Key Encipherment, Key Agreement
            X509v3 Extended Key Usage: 
                TLS Web Server Authentication
            X509v3 Subject Key Identifier: 
                3C:51:7A:A0:F6:D5:88:6E:3A:47:72:29:57:5E:92:B4:55:20:D3:56
            X509v3 Authority Key Identifier: 
                31:43:6B:7C:EF:4E:96:F4:12:20:C2:4C:BD:A0:16:DE:1B:0F:C9:2B
    Signature Algorithm: ecdsa-with-SHA256
    Signature Value:
        30:81:87:02:42:01:2c:a7:03:6c:1d:d7:57:96:78:9a:96:82:
        ce:95:90:8a:bf:1d:54:90:f9:cb:60:7b:97:60:72:d9:ad:fd:
        2c:89:78:a9:25:21:43:e4:ea:5f:7c:3a:78:71:45:9d:88:d3:
        d6:3a:55:03:28:04:c2:5a:0c:62:16:91:e4:18:93:68:04:02:
        41:5c:77:a7:ef:6d:60:6d:cd:d6:8c:04:6c:4a:41:74:bd:dc:
        9e:69:42:50:3b:f7:32:c9:4d:f4:7b:f6:8f:9e:e9:1f:cb:e3:
        76:57:8a:9b:59:3b:6e:65:19:e0:56:ab:aa:4f:75:f3:d2:c1:
        a4:65:03:ac:7e:9d:19:80:4b:5d:62:a0
-----BEGIN CERTIFICATE-----
MIICBjCCAWigAwIBAgIBAjAKBggqhkjOPQQDAjAVMRMwEQYDVQQKDApFeGFtcGxl
IENBMB4XDTI0MTIyNDE0MjUxMVoXDTI1MTIyNDE0MjUxMVowFDESMBAGA1UEAwwJ
bG9jYWxob3N0MIGbMBAGByqGSM49AgEGBSuBBAAjA4GGAAQBuOqHDz4FvMfrj8wF
PZwVPuX/wDzCRwZzDMCpgAl+HYlpNnfqGUI0MmbYuWm5iq/vNSwMP02T5rHPokp4
1RXY6GoBc0mbrV+x6tIFxqZPESK31WQN9wiMCvX9p3J3DgdGLUFQIJp+DDpJxcLJ
Q8rgMPcXBMcttgN1rgLM7vhivnHHeeajZzBlMA4GA1UdDwEB/wQEAwIDqDATBgNV
HSUEDDAKBggrBgEFBQcDATAdBgNVHQ4EFgQUPFF6oPbViG46R3IpV16StFUg01Yw
HwYDVR0jBBgwFoAUMUNrfO9OlvQSIMJMvaAW3hsPySswCgYIKoZIzj0EAwIDgYsA
MIGHAkIBLKcDbB3XV5Z4mpaCzpWQir8dVJD5y2B7l2By2a39LIl4qSUhQ+TqX3w6
eHFFnYjT1jpVAygEwloMYhaR5BiTaAQCQVx3p+9tYG3N1owEbEpBdL3cnmlCUDv3
MslN9Hv2j57pH8vjdleKm1k7bmUZ4Farqk9189LBpGUDrH6dGYBLXWKg
-----END CERTIFICATE-----
