Certificate:
    Data:
        Version: 3 (0x2)
        Serial Number: 2 (0x2)
        Signature Algorithm: ecdsa-with-SHA256
        Issuer: O=Example CA
        Validity
            Not Before: Dec 24 14:25:10 2024 GMT
            Not After : Dec 24 14:25:10 2025 GMT
        Subject: CN=localhost
        Subject Public Key Info:
            Public Key Algorithm: id-ecPublicKey
                Public-Key: (384 bit)
                pub:
                    04:d5:89:5a:16:a8:8f:cf:8b:1c:d4:d1:74:73:09:
                    69:19:47:17:4c:1e:76:e9:0d:cc:d4:0e:79:df:3b:
                    d6:b1:6c:d0:a5:9f:78:0f:92:e2:44:8d:87:cf:fc:
                    68:5c:06:f0:1a:cc:2d:fb:5e:fd:77:00:69:af:b8:
                    28:b0:66:46:e3:6e:82:e4:15:ca:8c:a5:bd:8c:01:
                    1c:e4:52:07:eb:da:2d:3a:56:a9:34:99:21:7f:27:
                    9e:35:d9:f8:e0:fb:ff
                ASN1 OID: secp384r1
                NIST CURVE: P-384
        X509v3 extensions:
            X509v3 Key Usage: critical
                Digital Signature, Key Encipherment, Key Agreement
            X509v3 Extended Key Usage: 
                TLS Web Server Authentication
            X509v3 Subject Key Identifier: 
                4E:C2:4F:6B:9B:31:76:DD:B0:F4:7D:44:7D:3A:CA:E6:3E:56:19:33
            X509v3 Authority Key Identifier: 
                7C:49:42:95:D8:D3:F2:41:CA:45:6F:0C:46:76:A2:83:7F:9A:15:48
    Signature Algorithm: ecdsa-with-SHA256
    Signature Value:
        30:66:02:31:00:9f:4e:3a:0b:47:dd:76:ff:83:5f:1b:86:57:
        ab:12:ff:e2:38:13:16:5a:b4:8e:3b:cd:77:15:41:d5:2c:d9:
        d5:4e:4d:53:e6:c4:d9:a0:ae:b0:c7:64:3e:fa:a0:ae:fb:02:
        31:00:c4:db:90:d6:ec:8f:5f:bc:c4:0c:3c:23:02:3b:49:06:
        c6:1e:d5:28:dd:b2:86:da:65:72:01:1e:4b:23:41:38:91:57:
        30:2c:c2:94:6f:c3:99:bb:83:1e:04:21:b0:98
-----BEGIN CERTIFICATE-----
MIIBvTCCAUKgAwIBAgIBAjAKBggqhkjOPQQDAjAVMRMwEQYDVQQKDApFeGFtcGxl
IENBMB4XDTI0MTIyNDE0MjUxMFoXDTI1MTIyNDE0MjUxMFowFDESMBAGA1UEAwwJ
bG9jYWxob3N0MHYwEAYHKoZIzj0CAQYFK4EEACIDYgAE1YlaFqiPz4sc1NF0cwlp
GUcXTB526Q3M1A553zvWsWzQpZ94D5LiRI2Hz/xoXAbwGswt+179dwBpr7gosGZG
426C5BXKjKW9jAEc5FIH69otOlapNJkhfyeeNdn44Pv/o2cwZTAOBgNVHQ8BAf8E
BAMCA6gwEwYDVR0lBAwwCgYIKwYBBQUHAwEwHQYDVR0OBBYEFE7CT2ubMXbdsPR9
RH06yuY+VhkzMB8GA1UdIwQYMBaAFHxJQpXY0/JBykVvDEZ2ooN/mhVIMAoGCCqG
SM49BAMCA2kAMGYCMQCfTjoLR912/4NfG4ZXqxL/4jgTFlq0jjvNdxVB1SzZ1U5N
U+bE2aCusMdkPvqgrvsCMQDE25DW7I9fvMQMPCMCO0kGxh7VKN2yhtplcgEeSyNB
OJFXMCzClG/DmbuDHgQhsJg=
-----END CERTIFICATE-----
